

Microchip MPLAB XC8 Assembler V2.46 build 20240104201356 
                                                                                               Tue Apr 02 11:24:42 2024

Microchip MPLAB XC8 C Compiler v2.46 (Free license) build 20240104201356 Og1 
     1                           	processor	16F877A
     2                           	pagewidth 120
     3                           	opt	flic
     4                           	psect	idataBANK0,global,class=CODE,delta=2,noexec
     5                           	psect	idataBANK1,global,class=CODE,delta=2,noexec
     6                           	psect	strings,global,class=STRING,delta=2,noexec
     7                           	psect	stringtext,global,reloc=256,class=STRCODE,delta=2,noexec
     8                           	psect	cinit,global,class=CODE,merge=1,delta=2
     9                           	psect	bssCOMMON,global,class=COMMON,space=1,delta=1,noexec
    10                           	psect	bssBANK0,global,class=BANK0,space=1,delta=1,noexec
    11                           	psect	dataBANK0,global,class=BANK0,space=1,delta=1,noexec
    12                           	psect	dataBANK1,global,class=BANK1,space=1,delta=1,noexec
    13                           	psect	inittext,global,class=CODE,delta=2
    14                           	psect	clrtext,global,class=CODE,delta=2
    15                           	psect	cstackCOMMON,global,class=COMMON,space=1,delta=1,noexec
    16                           	psect	cstackBANK0,global,class=BANK0,space=1,delta=1,noexec
    17                           	psect	maintext,global,class=CODE,split=1,delta=2
    18                           	psect	text1,local,class=CODE,merge=1,delta=2
    19                           	psect	text2,local,class=CODE,merge=1,delta=2
    20                           	psect	text3,local,class=CODE,merge=1,delta=2
    21                           	psect	text4,local,class=CODE,merge=1,delta=2
    22                           	psect	text5,local,class=CODE,merge=1,delta=2
    23                           	psect	text6,local,class=CODE,merge=1,delta=2,group=1
    24                           	psect	text7,local,class=CODE,merge=1,delta=2,group=1
    25                           	psect	text8,local,class=CODE,merge=1,delta=2,group=1
    26                           	psect	text9,local,class=CODE,merge=1,delta=2,group=1
    27                           	psect	text10,local,class=CODE,merge=1,delta=2,group=1
    28                           	psect	text11,local,class=CODE,merge=1,delta=2,group=1
    29                           	psect	text12,local,class=CODE,merge=1,delta=2,group=1
    30                           	psect	text13,local,class=CODE,merge=1,delta=2
    31                           	psect	text14,local,class=CODE,merge=1,delta=2
    32                           	psect	text15,local,class=CODE,merge=1,delta=2
    33                           	psect	text16,local,class=CODE,merge=1,delta=2
    34                           	psect	text17,local,class=CODE,merge=1,delta=2
    35                           	psect	text18,local,class=CODE,merge=1,delta=2
    36                           	psect	text19,local,class=CODE,merge=1,delta=2
    37                           	psect	text20,local,class=CODE,merge=1,delta=2
    38                           	psect	text21,local,class=CODE,merge=1,delta=2
    39                           	psect	text22,local,class=CODE,merge=1,delta=2
    40                           	psect	text23,local,class=CODE,merge=1,delta=2
    41                           	psect	text24,local,class=CODE,merge=1,delta=2
    42                           	psect	intentry,global,class=CODE,delta=2
    43                           	psect	config,global,abs,ovrld,class=CONFIG,space=4,delta=2,noexec
    44                           	dabs	1,0x7E,2
    45     0000                     
    46                           ; Version 2.20
    47                           ; Generated 12/02/2020 GMT
    48                           ; 
    49                           ; Copyright © 2020, Microchip Technology Inc. and its subsidiaries ("Microchip")
    50                           ; All rights reserved.
    51                           ; 
    52                           ; This software is developed by Microchip Technology Inc. and its subsidiaries ("Microch
      +                          ip").
    53                           ; 
    54                           ; Redistribution and use in source and binary forms, with or without modification, are
    55                           ; permitted provided that the following conditions are met:
    56                           ; 
    57                           ;     1. Redistributions of source code must retain the above copyright notice, this lis
      +                          t of
    58                           ;        conditions and the following disclaimer.
    59                           ; 
    60                           ;     2. Redistributions in binary form must reproduce the above copyright notice, this 
      +                          list
    61                           ;        of conditions and the following disclaimer in the documentation and/or other
    62                           ;        materials provided with the distribution.
    63                           ; 
    64                           ;     3. Microchip's name may not be used to endorse or promote products derived from th
      +                          is
    65                           ;        software without specific prior written permission.
    66                           ; 
    67                           ; THIS SOFTWARE IS PROVIDED BY MICROCHIP "AS IS" AND ANY EXPRESS OR IMPLIED WARRANTIES,
    68                           ; INCLUDING, BUT NOT LIMITED TO, THE IMPLIED WARRANTIES OF MERCHANTABILITY AND FITNESS F
      +                          OR
    69                           ; PURPOSE ARE DISCLAIMED.  IN NO EVENT SHALL MICROCHIP BE LIABLE FOR ANY DIRECT, INDIREC
      +                          T,
    70                           ; INCIDENTAL, SPECIAL, EXEMPLARY, OR CONSEQUENTIAL DAMAGES (INCLUDING BUT NOT LIMITED TO
    71                           ; PROCUREMENT OF SUBSTITUTE GOODS OR SERVICES; LOSS OF USE, DATA OR PROFITS; OR BUSINESS
    72                           ; INTERRUPTION) HOWSOEVER CAUSED AND ON ANY THEORY OF LIABILITY, WHETHER IN CONTRACT, ST
      +                          RICT
    73                           ; LIABILITY, OR TORT (INCLUDING NEGLIGENCE OR OTHERWISE) ARISING IN ANY WAY OUT OF THE U
      +                          SE OF
    74                           ; THIS SOFTWARE, EVEN IF ADVISED OF THE POSSIBILITY OF SUCH DAMAGE.
    75                           ; 
    76                           ; 
    77                           ; Code-generator required, PIC16F877A Definitions
    78                           ; 
    79                           ; SFR Addresses
    80     0000                     	;# 
    81     0001                     	;# 
    82     0002                     	;# 
    83     0003                     	;# 
    84     0004                     	;# 
    85     0005                     	;# 
    86     0006                     	;# 
    87     0007                     	;# 
    88     0008                     	;# 
    89     0009                     	;# 
    90     000A                     	;# 
    91     000B                     	;# 
    92     000C                     	;# 
    93     000D                     	;# 
    94     000E                     	;# 
    95     000E                     	;# 
    96     000F                     	;# 
    97     0010                     	;# 
    98     0011                     	;# 
    99     0012                     	;# 
   100     0013                     	;# 
   101     0014                     	;# 
   102     0015                     	;# 
   103     0015                     	;# 
   104     0016                     	;# 
   105     0017                     	;# 
   106     0018                     	;# 
   107     0019                     	;# 
   108     001A                     	;# 
   109     001B                     	;# 
   110     001B                     	;# 
   111     001C                     	;# 
   112     001D                     	;# 
   113     001E                     	;# 
   114     001F                     	;# 
   115     0081                     	;# 
   116     0085                     	;# 
   117     0086                     	;# 
   118     0087                     	;# 
   119     0088                     	;# 
   120     0089                     	;# 
   121     008C                     	;# 
   122     008D                     	;# 
   123     008E                     	;# 
   124     0091                     	;# 
   125     0092                     	;# 
   126     0093                     	;# 
   127     0094                     	;# 
   128     0098                     	;# 
   129     0099                     	;# 
   130     009C                     	;# 
   131     009D                     	;# 
   132     009E                     	;# 
   133     009F                     	;# 
   134     010C                     	;# 
   135     010D                     	;# 
   136     010E                     	;# 
   137     010F                     	;# 
   138     018C                     	;# 
   139     018D                     	;# 
   140     0000                     	;# 
   141     0001                     	;# 
   142     0002                     	;# 
   143     0003                     	;# 
   144     0004                     	;# 
   145     0005                     	;# 
   146     0006                     	;# 
   147     0007                     	;# 
   148     0008                     	;# 
   149     0009                     	;# 
   150     000A                     	;# 
   151     000B                     	;# 
   152     000C                     	;# 
   153     000D                     	;# 
   154     000E                     	;# 
   155     000E                     	;# 
   156     000F                     	;# 
   157     0010                     	;# 
   158     0011                     	;# 
   159     0012                     	;# 
   160     0013                     	;# 
   161     0014                     	;# 
   162     0015                     	;# 
   163     0015                     	;# 
   164     0016                     	;# 
   165     0017                     	;# 
   166     0018                     	;# 
   167     0019                     	;# 
   168     001A                     	;# 
   169     001B                     	;# 
   170     001B                     	;# 
   171     001C                     	;# 
   172     001D                     	;# 
   173     001E                     	;# 
   174     001F                     	;# 
   175     0081                     	;# 
   176     0085                     	;# 
   177     0086                     	;# 
   178     0087                     	;# 
   179     0088                     	;# 
   180     0089                     	;# 
   181     008C                     	;# 
   182     008D                     	;# 
   183     008E                     	;# 
   184     0091                     	;# 
   185     0092                     	;# 
   186     0093                     	;# 
   187     0094                     	;# 
   188     0098                     	;# 
   189     0099                     	;# 
   190     009C                     	;# 
   191     009D                     	;# 
   192     009E                     	;# 
   193     009F                     	;# 
   194     010C                     	;# 
   195     010D                     	;# 
   196     010E                     	;# 
   197     010F                     	;# 
   198     018C                     	;# 
   199     018D                     	;# 
   200     0000                     	;# 
   201     0001                     	;# 
   202     0002                     	;# 
   203     0003                     	;# 
   204     0004                     	;# 
   205     0005                     	;# 
   206     0006                     	;# 
   207     0007                     	;# 
   208     0008                     	;# 
   209     0009                     	;# 
   210     000A                     	;# 
   211     000B                     	;# 
   212     000C                     	;# 
   213     000D                     	;# 
   214     000E                     	;# 
   215     000E                     	;# 
   216     000F                     	;# 
   217     0010                     	;# 
   218     0011                     	;# 
   219     0012                     	;# 
   220     0013                     	;# 
   221     0014                     	;# 
   222     0015                     	;# 
   223     0015                     	;# 
   224     0016                     	;# 
   225     0017                     	;# 
   226     0018                     	;# 
   227     0019                     	;# 
   228     001A                     	;# 
   229     001B                     	;# 
   230     001B                     	;# 
   231     001C                     	;# 
   232     001D                     	;# 
   233     001E                     	;# 
   234     001F                     	;# 
   235     0081                     	;# 
   236     0085                     	;# 
   237     0086                     	;# 
   238     0087                     	;# 
   239     0088                     	;# 
   240     0089                     	;# 
   241     008C                     	;# 
   242     008D                     	;# 
   243     008E                     	;# 
   244     0091                     	;# 
   245     0092                     	;# 
   246     0093                     	;# 
   247     0094                     	;# 
   248     0098                     	;# 
   249     0099                     	;# 
   250     009C                     	;# 
   251     009D                     	;# 
   252     009E                     	;# 
   253     009F                     	;# 
   254     010C                     	;# 
   255     010D                     	;# 
   256     010E                     	;# 
   257     010F                     	;# 
   258     018C                     	;# 
   259     018D                     	;# 
   260     0000                     	;# 
   261     0001                     	;# 
   262     0002                     	;# 
   263     0003                     	;# 
   264     0004                     	;# 
   265     0005                     	;# 
   266     0006                     	;# 
   267     0007                     	;# 
   268     0008                     	;# 
   269     0009                     	;# 
   270     000A                     	;# 
   271     000B                     	;# 
   272     000C                     	;# 
   273     000D                     	;# 
   274     000E                     	;# 
   275     000E                     	;# 
   276     000F                     	;# 
   277     0010                     	;# 
   278     0011                     	;# 
   279     0012                     	;# 
   280     0013                     	;# 
   281     0014                     	;# 
   282     0015                     	;# 
   283     0015                     	;# 
   284     0016                     	;# 
   285     0017                     	;# 
   286     0018                     	;# 
   287     0019                     	;# 
   288     001A                     	;# 
   289     001B                     	;# 
   290     001B                     	;# 
   291     001C                     	;# 
   292     001D                     	;# 
   293     001E                     	;# 
   294     001F                     	;# 
   295     0081                     	;# 
   296     0085                     	;# 
   297     0086                     	;# 
   298     0087                     	;# 
   299     0088                     	;# 
   300     0089                     	;# 
   301     008C                     	;# 
   302     008D                     	;# 
   303     008E                     	;# 
   304     0091                     	;# 
   305     0092                     	;# 
   306     0093                     	;# 
   307     0094                     	;# 
   308     0098                     	;# 
   309     0099                     	;# 
   310     009C                     	;# 
   311     009D                     	;# 
   312     009E                     	;# 
   313     009F                     	;# 
   314     010C                     	;# 
   315     010D                     	;# 
   316     010E                     	;# 
   317     010F                     	;# 
   318     018C                     	;# 
   319     018D                     	;# 
   320     0000                     	;# 
   321     0001                     	;# 
   322     0002                     	;# 
   323     0003                     	;# 
   324     0004                     	;# 
   325     0005                     	;# 
   326     0006                     	;# 
   327     0007                     	;# 
   328     0008                     	;# 
   329     0009                     	;# 
   330     000A                     	;# 
   331     000B                     	;# 
   332     000C                     	;# 
   333     000D                     	;# 
   334     000E                     	;# 
   335     000E                     	;# 
   336     000F                     	;# 
   337     0010                     	;# 
   338     0011                     	;# 
   339     0012                     	;# 
   340     0013                     	;# 
   341     0014                     	;# 
   342     0015                     	;# 
   343     0015                     	;# 
   344     0016                     	;# 
   345     0017                     	;# 
   346     0018                     	;# 
   347     0019                     	;# 
   348     001A                     	;# 
   349     001B                     	;# 
   350     001B                     	;# 
   351     001C                     	;# 
   352     001D                     	;# 
   353     001E                     	;# 
   354     001F                     	;# 
   355     0081                     	;# 
   356     0085                     	;# 
   357     0086                     	;# 
   358     0087                     	;# 
   359     0088                     	;# 
   360     0089                     	;# 
   361     008C                     	;# 
   362     008D                     	;# 
   363     008E                     	;# 
   364     0091                     	;# 
   365     0092                     	;# 
   366     0093                     	;# 
   367     0094                     	;# 
   368     0098                     	;# 
   369     0099                     	;# 
   370     009C                     	;# 
   371     009D                     	;# 
   372     009E                     	;# 
   373     009F                     	;# 
   374     010C                     	;# 
   375     010D                     	;# 
   376     010E                     	;# 
   377     010F                     	;# 
   378     018C                     	;# 
   379     018D                     	;# 
   380     0000                     	;# 
   381     0001                     	;# 
   382     0002                     	;# 
   383     0003                     	;# 
   384     0004                     	;# 
   385     0005                     	;# 
   386     0006                     	;# 
   387     0007                     	;# 
   388     0008                     	;# 
   389     0009                     	;# 
   390     000A                     	;# 
   391     000B                     	;# 
   392     000C                     	;# 
   393     000D                     	;# 
   394     000E                     	;# 
   395     000E                     	;# 
   396     000F                     	;# 
   397     0010                     	;# 
   398     0011                     	;# 
   399     0012                     	;# 
   400     0013                     	;# 
   401     0014                     	;# 
   402     0015                     	;# 
   403     0015                     	;# 
   404     0016                     	;# 
   405     0017                     	;# 
   406     0018                     	;# 
   407     0019                     	;# 
   408     001A                     	;# 
   409     001B                     	;# 
   410     001B                     	;# 
   411     001C                     	;# 
   412     001D                     	;# 
   413     001E                     	;# 
   414     001F                     	;# 
   415     0081                     	;# 
   416     0085                     	;# 
   417     0086                     	;# 
   418     0087                     	;# 
   419     0088                     	;# 
   420     0089                     	;# 
   421     008C                     	;# 
   422     008D                     	;# 
   423     008E                     	;# 
   424     0091                     	;# 
   425     0092                     	;# 
   426     0093                     	;# 
   427     0094                     	;# 
   428     0098                     	;# 
   429     0099                     	;# 
   430     009C                     	;# 
   431     009D                     	;# 
   432     009E                     	;# 
   433     009F                     	;# 
   434     010C                     	;# 
   435     010D                     	;# 
   436     010E                     	;# 
   437     010F                     	;# 
   438     018C                     	;# 
   439     018D                     	;# 
   440                           
   441                           	psect	idataBANK0
   442     06FC                     __pidataBANK0:
   443                           
   444                           ;initializer for read_digital_keypad@once
   445     06FC  3401               	retlw	1
   446                           
   447                           ;initializer for _operation_mode
   448     06FD  3401               	retlw	1
   449                           
   450                           	psect	idataBANK1
   451     1761                     __pidataBANK1:
   452                           
   453                           ;initializer for _washing_prog
   454     1761  3459               	retlw	low (STR_1| (0+32768))
   455     1762  3488               	retlw	high (STR_1| (0+32768))
   456     1763  345F               	retlw	low (STR_2| (0+32768))
   457     1764  3488               	retlw	high (STR_2| (0+32768))
   458     1765  34E0               	retlw	low (STR_3| (0+32768))
   459     1766  3487               	retlw	high (STR_3| (0+32768))
   460     1767  3446               	retlw	low (STR_4| (0+32768))
   461     1768  3488               	retlw	high (STR_4| (0+32768))
   462     1769  34D6               	retlw	low (STR_5| (0+32768))
   463     176A  3487               	retlw	high (STR_5| (0+32768))
   464     176B  34AA               	retlw	low (STR_6| (0+32768))
   465     176C  3487               	retlw	high (STR_6| (0+32768))
   466     176D  3422               	retlw	low (STR_7| (0+32768))
   467     176E  3488               	retlw	high (STR_7| (0+32768))
   468     176F  34EA               	retlw	low (STR_8| (0+32768))
   469     1770  3487               	retlw	high (STR_8| (0+32768))
   470     1771  34FE               	retlw	low (STR_9| (0+32768))
   471     1772  3487               	retlw	high (STR_9| (0+32768))
   472     1773  3411               	retlw	low (STR_10| (0+32768))
   473     1774  3488               	retlw	high (STR_10| (0+32768))
   474     1775  34F4               	retlw	low (STR_11| (0+32768))
   475     1776  3487               	retlw	high (STR_11| (0+32768))
   476     1777  34C1               	retlw	low (STR_12| (0+32768))
   477     1778  3487               	retlw	high (STR_12| (0+32768))
   478                           
   479                           ;initializer for _water_level_options
   480     1779  346F               	retlw	low (STR_13| (0+32768))
   481     177A  3488               	retlw	high (STR_13| (0+32768))
   482     177B  3474               	retlw	low (STR_14| (0+32768))
   483     177C  3488               	retlw	high (STR_14| (0+32768))
   484     177D  343F               	retlw	low (STR_15| (0+32768))
   485     177E  3488               	retlw	high (STR_15| (0+32768))
   486     177F  3465               	retlw	low (STR_16| (0+32768))
   487     1780  3488               	retlw	high (STR_16| (0+32768))
   488     1781  3478               	retlw	low (STR_17| (0+32768))
   489     1782  3488               	retlw	high (STR_17| (0+32768))
   490     0006                     _PORTB	set	6
   491     0008                     _PORTD	set	8
   492     0061                     _TMR2IF	set	97
   493     0049                     _RE1	set	73
   494     004A                     _RE2	set	74
   495     0030                     _RB0	set	48
   496     003A                     _RC2	set	58
   497     0092                     _TMR2ON	set	146
   498     005F                     _GIE	set	95
   499     005E                     _PEIE	set	94
   500     0039                     _RC1	set	57
   501     0092                     _PR2	set	146
   502     0086                     _TRISB	set	134
   503     0088                     _TRISD	set	136
   504     0461                     _TMR2IE	set	1121
   505     0449                     _TRISE1	set	1097
   506     044A                     _TRISE2	set	1098
   507     0439                     _TRISC1	set	1081
   508     043A                     _TRISC2	set	1082
   509                           
   510                           	psect	strings
   511     1000                     __pstrings:
   512     1000                     stringtab:
   513     1000                     __stringtab:
   514                           
   515                           ;	String table - string pointers are 2 bytes each
   516     1000  1BFF               	btfsc	btemp+1,7
   517     1001  280A               	ljmp	stringcode
   518     1002  1383               	bcf	3,7
   519     1003  187F               	btfsc	btemp+1,0
   520     1004  1783               	bsf	3,7
   521     1005  0800               	movf	0,w
   522     1006  0A84               	incf	4,f
   523     1007  1903               	skipnz
   524     1008  0AFF               	incf	btemp+1,f
   525     1009  0008               	return
   526     100A                     stringcode:
   527     100A  087F               	movf	btemp+1,w
   528     100B  397F               	andlw	127
   529     100C  008A               	movwf	10
   530     100D  0804               	movf	4,w
   531     100E  0A84               	incf	4,f
   532     100F  1903               	skipnz
   533     1010  0AFF               	incf	btemp+1,f
   534     1011  0082               	movwf	2
   535     1012                     __stringbase:
   536     1012                     __end_of__stringtab:
   537                           
   538                           	psect	stringtext
   539     0700                     __pstringtext:
   540     0700                     STR_33:
   541     0700  3435               	retlw	53	;'5'
   542     0701  342D               	retlw	45	;'-'
   543     0702  3453               	retlw	83	;'S'
   544     0703  3454               	retlw	84	;'T'
   545     0704  3441               	retlw	65	;'A'
   546     0705  3452               	retlw	82	;'R'
   547     0706  3454               	retlw	84	;'T'
   548     0707  3420               	retlw	32	;' '
   549     0708  3420               	retlw	32	;' '
   550     0709  3436               	retlw	54	;'6'
   551     070A  342D               	retlw	45	;'-'
   552     070B  3450               	retlw	80	;'P'
   553     070C  3441               	retlw	65	;'A'
   554     070D  3455               	retlw	85	;'U'
   555     070E  3453               	retlw	83	;'S'
   556     070F  3445               	retlw	69	;'E'
   557     0710  3400               	retlw	0
   558     0711                     STR_41:
   559     0711  3450               	retlw	80	;'P'
   560     0712  3472               	retlw	114	;'r'
   561     0713  346F               	retlw	111	;'o'
   562     0714  3467               	retlw	103	;'g'
   563     0715  342E               	retlw	46	;'.'
   564     0716  3420               	retlw	32	;' '
   565     0717  3443               	retlw	67	;'C'
   566     0718  346F               	retlw	111	;'o'
   567     0719  346D               	retlw	109	;'m'
   568     071A  3470               	retlw	112	;'p'
   569     071B  346C               	retlw	108	;'l'
   570     071C  3465               	retlw	101	;'e'
   571     071D  3474               	retlw	116	;'t'
   572     071E  3465               	retlw	101	;'e'
   573     071F  3464               	retlw	100	;'d'
   574     0720  3400               	retlw	0
   575     0721                     STR_20:
   576     0721  3457               	retlw	87	;'W'
   577     0722  3461               	retlw	97	;'a'
   578     0723  3473               	retlw	115	;'s'
   579     0724  3468               	retlw	104	;'h'
   580     0725  3469               	retlw	105	;'i'
   581     0726  346E               	retlw	110	;'n'
   582     0727  3467               	retlw	103	;'g'
   583     0728  3420               	retlw	32	;' '
   584     0729  344D               	retlw	77	;'M'
   585     072A  3461               	retlw	97	;'a'
   586     072B  3463               	retlw	99	;'c'
   587     072C  3468               	retlw	104	;'h'
   588     072D  3469               	retlw	105	;'i'
   589     072E  346E               	retlw	110	;'n'
   590     072F  3465               	retlw	101	;'e'
   591     0730  3400               	retlw	0
   592     0731                     STR_26:
   593     0731  3477               	retlw	119	;'w'
   594     0732  3461               	retlw	97	;'a'
   595     0733  3473               	retlw	115	;'s'
   596     0734  3468               	retlw	104	;'h'
   597     0735  3469               	retlw	105	;'i'
   598     0736  346E               	retlw	110	;'n'
   599     0737  3467               	retlw	103	;'g'
   600     0738  3420               	retlw	32	;' '
   601     0739  3450               	retlw	80	;'P'
   602     073A  3472               	retlw	114	;'r'
   603     073B  346F               	retlw	111	;'o'
   604     073C  3467               	retlw	103	;'g'
   605     073D  3472               	retlw	114	;'r'
   606     073E  3461               	retlw	97	;'a'
   607     073F  346D               	retlw	109	;'m'
   608     0740  3400               	retlw	0
   609     0741                     STR_18:
   610     0741  3450               	retlw	80	;'P'
   611     0742  3472               	retlw	114	;'r'
   612     0743  3465               	retlw	101	;'e'
   613     0744  3473               	retlw	115	;'s'
   614     0745  3473               	retlw	115	;'s'
   615     0746  3420               	retlw	32	;' '
   616     0747  344B               	retlw	75	;'K'
   617     0748  3465               	retlw	101	;'e'
   618     0749  3479               	retlw	121	;'y'
   619     074A  3420               	retlw	32	;' '
   620     074B  3435               	retlw	53	;'5'
   621     074C  3420               	retlw	32	;' '
   622     074D  3454               	retlw	84	;'T'
   623     074E  346F               	retlw	111	;'o'
   624     074F  3400               	retlw	0
   625     0750                     STR_42:
   626     0750  3452               	retlw	82	;'R'
   627     0751  3465               	retlw	101	;'e'
   628     0752  346D               	retlw	109	;'m'
   629     0753  346F               	retlw	111	;'o'
   630     0754  3476               	retlw	118	;'v'
   631     0755  3465               	retlw	101	;'e'
   632     0756  3420               	retlw	32	;' '
   633     0757  3443               	retlw	67	;'C'
   634     0758  346C               	retlw	108	;'l'
   635     0759  346F               	retlw	111	;'o'
   636     075A  3474               	retlw	116	;'t'
   637     075B  3468               	retlw	104	;'h'
   638     075C  3465               	retlw	101	;'e'
   639     075D  3473               	retlw	115	;'s'
   640     075E  3400               	retlw	0
   641     075F                     STR_27:
   642     075F  3457               	retlw	87	;'W'
   643     0760  3461               	retlw	97	;'a'
   644     0761  3474               	retlw	116	;'t'
   645     0762  3465               	retlw	101	;'e'
   646     0763  3472               	retlw	114	;'r'
   647     0764  3420               	retlw	32	;' '
   648     0765  344C               	retlw	76	;'L'
   649     0766  3465               	retlw	101	;'e'
   650     0767  3476               	retlw	118	;'v'
   651     0768  3465               	retlw	101	;'e'
   652     0769  346C               	retlw	108	;'l'
   653     076A  343A               	retlw	58	;':'
   654     076B  3400               	retlw	0
   655     076C                     STR_44:
   656     076C  3450               	retlw	80	;'P'
   657     076D  346C               	retlw	108	;'l'
   658     076E  3465               	retlw	101	;'e'
   659     076F  3461               	retlw	97	;'a'
   660     0770  3473               	retlw	115	;'s'
   661     0771  3465               	retlw	101	;'e'
   662     0772  3420               	retlw	32	;' '
   663     0773  3443               	retlw	67	;'C'
   664     0774  346C               	retlw	108	;'l'
   665     0775  346F               	retlw	111	;'o'
   666     0776  3473               	retlw	115	;'s'
   667     0777  3465               	retlw	101	;'e'
   668     0778  3400               	retlw	0
   669     0779                     STR_21:
   670     0779  3450               	retlw	80	;'P'
   671     077A  3472               	retlw	114	;'r'
   672     077B  3465               	retlw	101	;'e'
   673     077C  3473               	retlw	115	;'s'
   674     077D  3473               	retlw	115	;'s'
   675     077E  3420               	retlw	32	;' '
   676     077F  3453               	retlw	83	;'S'
   677     0780  3477               	retlw	119	;'w'
   678     0781  3469               	retlw	105	;'i'
   679     0782  3474               	retlw	116	;'t'
   680     0783  3463               	retlw	99	;'c'
   681     0784  3468               	retlw	104	;'h'
   682     0785  3400               	retlw	0
   683     0786                     STR_31:
   684     0786  3446               	retlw	70	;'F'
   685     0787  3475               	retlw	117	;'u'
   686     0788  346E               	retlw	110	;'n'
   687     0789  3463               	retlw	99	;'c'
   688     078A  3474               	retlw	116	;'t'
   689     078B  3469               	retlw	105	;'i'
   690     078C  346F               	retlw	111	;'o'
   691     078D  346E               	retlw	110	;'n'
   692     078E  3420               	retlw	32	;' '
   693     078F  342D               	retlw	45	;'-'
   694     0790  3420               	retlw	32	;' '
   695     0791  3400               	retlw	0
   696     0792                     STR_24:
   697     0792  3450               	retlw	80	;'P'
   698     0793  346F               	retlw	111	;'o'
   699     0794  3477               	retlw	119	;'w'
   700     0795  3465               	retlw	101	;'e'
   701     0796  3472               	retlw	114	;'r'
   702     0797  3469               	retlw	105	;'i'
   703     0798  346E               	retlw	110	;'n'
   704     0799  3467               	retlw	103	;'g'
   705     079A  3420               	retlw	32	;' '
   706     079B  344F               	retlw	79	;'O'
   707     079C  344E               	retlw	78	;'N'
   708     079D  3400               	retlw	0
   709     079E                     STR_43:
   710     079E  3444               	retlw	68	;'D'
   711     079F  346F               	retlw	111	;'o'
   712     07A0  346F               	retlw	111	;'o'
   713     07A1  3472               	retlw	114	;'r'
   714     07A2  3420               	retlw	32	;' '
   715     07A3  343A               	retlw	58	;':'
   716     07A4  3420               	retlw	32	;' '
   717     07A5  346F               	retlw	111	;'o'
   718     07A6  3470               	retlw	112	;'p'
   719     07A7  3465               	retlw	101	;'e'
   720     07A8  346E               	retlw	110	;'n'
   721     07A9  3400               	retlw	0
   722     07AA                     STR_6:
   723     07AA  3445               	retlw	69	;'E'
   724     07AB  3463               	retlw	99	;'c'
   725     07AC  346F               	retlw	111	;'o'
   726     07AD  3420               	retlw	32	;' '
   727     07AE  3443               	retlw	67	;'C'
   728     07AF  346F               	retlw	111	;'o'
   729     07B0  3474               	retlw	116	;'t'
   730     07B1  3474               	retlw	116	;'t'
   731     07B2  346F               	retlw	111	;'o'
   732     07B3  346E               	retlw	110	;'n'
   733     07B4  3473               	retlw	115	;'s'
   734     07B5  3400               	retlw	0
   735     07B6                     STR_22:
   736     07B6  3453               	retlw	83	;'S'
   737     07B7  3457               	retlw	87	;'W'
   738     07B8  3435               	retlw	53	;'5'
   739     07B9  343A               	retlw	58	;':'
   740     07BA  3420               	retlw	32	;' '
   741     07BB  3453               	retlw	83	;'S'
   742     07BC  3454               	retlw	84	;'T'
   743     07BD  3441               	retlw	65	;'A'
   744     07BE  3452               	retlw	82	;'R'
   745     07BF  3454               	retlw	84	;'T'
   746     07C0  3400               	retlw	0
   747     07C1                     STR_12:
   748     07C1  3441               	retlw	65	;'A'
   749     07C2  3471               	retlw	113	;'q'
   750     07C3  3475               	retlw	117	;'u'
   751     07C4  3461               	retlw	97	;'a'
   752     07C5  3420               	retlw	32	;' '
   753     07C6  3453               	retlw	83	;'S'
   754     07C7  3474               	retlw	116	;'t'
   755     07C8  346F               	retlw	111	;'o'
   756     07C9  3472               	retlw	114	;'r'
   757     07CA  3465               	retlw	101	;'e'
   758     07CB  3400               	retlw	0
   759     07CC                     STR_23:
   760     07CC  3453               	retlw	83	;'S'
   761     07CD  3457               	retlw	87	;'W'
   762     07CE  3436               	retlw	54	;'6'
   763     07CF  343A               	retlw	58	;':'
   764     07D0  3420               	retlw	32	;' '
   765     07D1  3453               	retlw	83	;'S'
   766     07D2  3454               	retlw	84	;'T'
   767     07D3  344F               	retlw	79	;'O'
   768     07D4  3450               	retlw	80	;'P'
   769     07D5  3400               	retlw	0
   770     07D6                     STR_5:
   771     07D6  3453               	retlw	83	;'S'
   772     07D7  3474               	retlw	116	;'t'
   773     07D8  3461               	retlw	97	;'a'
   774     07D9  3469               	retlw	105	;'i'
   775     07DA  346E               	retlw	110	;'n'
   776     07DB  3477               	retlw	119	;'w'
   777     07DC  3461               	retlw	97	;'a'
   778     07DD  3473               	retlw	115	;'s'
   779     07DE  3468               	retlw	104	;'h'
   780     07DF  3400               	retlw	0
   781     07E0                     STR_3:
   782     07E0  3444               	retlw	68	;'D'
   783     07E1  3465               	retlw	101	;'e'
   784     07E2  346C               	retlw	108	;'l'
   785     07E3  3469               	retlw	105	;'i'
   786     07E4  3463               	retlw	99	;'c'
   787     07E5  3461               	retlw	97	;'a'
   788     07E6  3474               	retlw	116	;'t'
   789     07E7  3465               	retlw	101	;'e'
   790     07E8  3473               	retlw	115	;'s'
   791     07E9  3400               	retlw	0
   792     07EA                     STR_8:
   793     07EA  3442               	retlw	66	;'B'
   794     07EB  3465               	retlw	101	;'e'
   795     07EC  3464               	retlw	100	;'d'
   796     07ED  3473               	retlw	115	;'s'
   797     07EE  3468               	retlw	104	;'h'
   798     07EF  3465               	retlw	101	;'e'
   799     07F0  3465               	retlw	101	;'e'
   800     07F1  3474               	retlw	116	;'t'
   801     07F2  3473               	retlw	115	;'s'
   802     07F3  3400               	retlw	0
   803     07F4                     STR_11:
   804     07F4  3457               	retlw	87	;'W'
   805     07F5  3461               	retlw	97	;'a'
   806     07F6  3473               	retlw	115	;'s'
   807     07F7  3468               	retlw	104	;'h'
   808     07F8  3420               	retlw	32	;' '
   809     07F9  344F               	retlw	79	;'O'
   810     07FA  346E               	retlw	110	;'n'
   811     07FB  346C               	retlw	108	;'l'
   812     07FC  3479               	retlw	121	;'y'
   813     07FD  3400               	retlw	0
   814     07FE                     STR_9:
   815     07FE  3452               	retlw	82	;'R'
   816     07FF  3469               	retlw	105	;'i'
   817     0800  346E               	retlw	110	;'n'
   818     0801  3473               	retlw	115	;'s'
   819     0802  3465               	retlw	101	;'e'
   820     0803  342B               	retlw	43	;'+'
   821     0804  3444               	retlw	68	;'D'
   822     0805  3472               	retlw	114	;'r'
   823     0806  3479               	retlw	121	;'y'
   824     0807  3400               	retlw	0
   825     0808                     STR_19:
   826     0808  3450               	retlw	80	;'P'
   827     0809  346F               	retlw	111	;'o'
   828     080A  3477               	retlw	119	;'w'
   829     080B  3465               	retlw	101	;'e'
   830     080C  3472               	retlw	114	;'r'
   831     080D  3420               	retlw	32	;' '
   832     080E  344F               	retlw	79	;'O'
   833     080F  344E               	retlw	78	;'N'
   834     0810  3400               	retlw	0
   835     0811                     STR_10:
   836     0811  3444               	retlw	68	;'D'
   837     0812  3472               	retlw	114	;'r'
   838     0813  3479               	retlw	121	;'y'
   839     0814  3420               	retlw	32	;' '
   840     0815  344F               	retlw	79	;'O'
   841     0816  346E               	retlw	110	;'n'
   842     0817  346C               	retlw	108	;'l'
   843     0818  3479               	retlw	121	;'y'
   844     0819  3400               	retlw	0
   845     081A                     STR_30:
   846     081A  3428               	retlw	40	;'('
   847     081B  344D               	retlw	77	;'M'
   848     081C  344D               	retlw	77	;'M'
   849     081D  343A               	retlw	58	;':'
   850     081E  3453               	retlw	83	;'S'
   851     081F  3453               	retlw	83	;'S'
   852     0820  3429               	retlw	41	;')'
   853     0821  3400               	retlw	0
   854     0822                     STR_7:
   855     0822  3457               	retlw	87	;'W'
   856     0823  346F               	retlw	111	;'o'
   857     0824  346F               	retlw	111	;'o'
   858     0825  346C               	retlw	108	;'l'
   859     0826  3465               	retlw	101	;'e'
   860     0827  346E               	retlw	110	;'n'
   861     0828  3473               	retlw	115	;'s'
   862     0829  3400               	retlw	0
   863     082A                     STR_32:
   864     082A  3454               	retlw	84	;'T'
   865     082B  3449               	retlw	73	;'I'
   866     082C  344D               	retlw	77	;'M'
   867     082D  3445               	retlw	69	;'E'
   868     082E  343A               	retlw	58	;':'
   869     082F  3420               	retlw	32	;' '
   870     0830  3400               	retlw	0
   871     0831                     STR_29:
   872     0831  3454               	retlw	84	;'T'
   873     0832  3469               	retlw	105	;'i'
   874     0833  346D               	retlw	109	;'m'
   875     0834  3465               	retlw	101	;'e'
   876     0835  343A               	retlw	58	;':'
   877     0836  3420               	retlw	32	;' '
   878     0837  3400               	retlw	0
   879     0838                     STR_28:
   880     0838  3450               	retlw	80	;'P'
   881     0839  3472               	retlw	114	;'r'
   882     083A  346F               	retlw	111	;'o'
   883     083B  3467               	retlw	103	;'g'
   884     083C  343A               	retlw	58	;':'
   885     083D  3420               	retlw	32	;' '
   886     083E  3400               	retlw	0
   887     083F                     STR_15:
   888     083F  344D               	retlw	77	;'M'
   889     0840  3465               	retlw	101	;'e'
   890     0841  3464               	retlw	100	;'d'
   891     0842  3469               	retlw	105	;'i'
   892     0843  3475               	retlw	117	;'u'
   893     0844  346D               	retlw	109	;'m'
   894     0845  3400               	retlw	0
   895     0846                     STR_4:
   896     0846  3457               	retlw	87	;'W'
   897     0847  3468               	retlw	104	;'h'
   898     0848  3469               	retlw	105	;'i'
   899     0849  3474               	retlw	116	;'t'
   900     084A  3465               	retlw	101	;'e'
   901     084B  3473               	retlw	115	;'s'
   902     084C  3400               	retlw	0
   903     084D                     STR_36:
   904     084D  3453               	retlw	83	;'S'
   905     084E  3470               	retlw	112	;'p'
   906     084F  3469               	retlw	105	;'i'
   907     0850  346E               	retlw	110	;'n'
   908     0851  3420               	retlw	32	;' '
   909     0852  3400               	retlw	0
   910     0853                     STR_35:
   911     0853  3452               	retlw	82	;'R'
   912     0854  3469               	retlw	105	;'i'
   913     0855  346E               	retlw	110	;'n'
   914     0856  3473               	retlw	115	;'s'
   915     0857  3465               	retlw	101	;'e'
   916     0858  3400               	retlw	0
   917     0859                     STR_1:
   918     0859  3444               	retlw	68	;'D'
   919     085A  3461               	retlw	97	;'a'
   920     085B  3469               	retlw	105	;'i'
   921     085C  346C               	retlw	108	;'l'
   922     085D  3479               	retlw	121	;'y'
   923     085E  3400               	retlw	0
   924     085F                     STR_2:
   925     085F  3448               	retlw	72	;'H'
   926     0860  3465               	retlw	101	;'e'
   927     0861  3461               	retlw	97	;'a'
   928     0862  3476               	retlw	118	;'v'
   929     0863  3479               	retlw	121	;'y'
   930     0864  3400               	retlw	0
   931     0865                     STR_16:
   932     0865  3448               	retlw	72	;'H'
   933     0866  3469               	retlw	105	;'i'
   934     0867  3467               	retlw	103	;'g'
   935     0868  3468               	retlw	104	;'h'
   936     0869  3400               	retlw	0
   937     086A                     STR_34:
   938     086A  3457               	retlw	87	;'W'
   939     086B  3461               	retlw	97	;'a'
   940     086C  3473               	retlw	115	;'s'
   941     086D  3468               	retlw	104	;'h'
   942     086E  3400               	retlw	0
   943     086F                     STR_13:
   944     086F  3441               	retlw	65	;'A'
   945     0870  3475               	retlw	117	;'u'
   946     0871  3474               	retlw	116	;'t'
   947     0872  346F               	retlw	111	;'o'
   948     0873  3400               	retlw	0
   949     0874                     STR_14:
   950     0874  344C               	retlw	76	;'L'
   951     0875  346F               	retlw	111	;'o'
   952     0876  3477               	retlw	119	;'w'
   953     0877  3400               	retlw	0
   954     0878                     STR_17:
   955     0878  344D               	retlw	77	;'M'
   956     0879  3461               	retlw	97	;'a'
   957     087A  3478               	retlw	120	;'x'
   958     087B  3400               	retlw	0
   959     0786                     
   960                           	psect	cinit
   961     000F                     start_initialization:	
   962                           ; #config settings
   963                           
   964     000F                     __initialization:
   965                           
   966                           ; Initialize objects allocated to BANK1
   967     000F  1383               	bcf	3,7	;select IRP bank0
   968     0010  30C2               	movlw	low (__pdataBANK1+34)
   969     0011  00FD               	movwf	btemp+-1
   970     0012  3017               	movlw	high __pidataBANK1
   971     0013  00FE               	movwf	btemp
   972     0014  3061               	movlw	low __pidataBANK1
   973     0015  00FF               	movwf	btemp+1
   974     0016  30A0               	movlw	low __pdataBANK1
   975     0017  0084               	movwf	4
   976     0018  160A  118A  271D  120A  118A  	fcall	init_ram0
   977                           
   978                           ; Initialize objects allocated to BANK0
   979     001D  120A  118A  26FC  120A  118A  	fcall	__pidataBANK0	;fetch initializer
   980     0022  00E8               	movwf	__pdataBANK0& (0+127)
   981     0023  120A  118A  26FD  120A  118A  	fcall	__pidataBANK0+1	;fetch initializer
   982     0028  00E9               	movwf	(__pdataBANK0+1)& (0+127)
   983                           
   984                           ; Clear objects allocated to BANK0
   985     0029  3056               	movlw	low __pbssBANK0
   986     002A  0084               	movwf	4
   987     002B  3068               	movlw	low (__pbssBANK0+18)
   988     002C  160A  118A  26F0  120A  118A  	fcall	clear_ram0
   989                           
   990                           ; Clear objects allocated to COMMON
   991     0031  01FA               	clrf	__pbssCOMMON& (0+127)
   992     0032  01FB               	clrf	(__pbssCOMMON+1)& (0+127)
   993     0033                     end_of_initialization:	
   994                           ;End of C runtime variable initialization code
   995                           
   996     0033                     __end_of__initialization:
   997     0033  0183               	clrf	3
   998     0034  120A  158A  2E0E   	ljmp	_main	;jump to C main() function
   999                           
  1000                           	psect	bssCOMMON
  1001     007A                     __pbssCOMMON:
  1002     007A                     _water_level_index:
  1003     007A                     	ds	1
  1004     007B                     _program_no:
  1005     007B                     	ds	1
  1006                           
  1007                           	psect	bssBANK0
  1008     0056                     __pbssBANK0:
  1009     0056                     isr@count:
  1010     0056                     	ds	2
  1011     0058                     run_program@total_time:
  1012     0058                     	ds	2
  1013     005A                     _spin_time:
  1014     005A                     	ds	2
  1015     005C                     _wash_time:
  1016     005C                     	ds	2
  1017     005E                     _rinse_time:
  1018     005E                     	ds	2
  1019     0060                     read_digital_keypad@prev_key:
  1020     0060                     	ds	1
  1021     0061                     read_digital_keypad@key:
  1022     0061                     	ds	1
  1023     0062                     read_digital_keypad@long_press:
  1024     0062                     	ds	1
  1025     0063                     _sec:
  1026     0063                     	ds	1
  1027     0064                     _min:
  1028     0064                     	ds	1
  1029     0065                     _reset_mode:
  1030     0065                     	ds	1
  1031     0066                     run_program@time:
  1032     0066                     	ds	2
  1033                           
  1034                           	psect	dataBANK0
  1035     0068                     __pdataBANK0:
  1036     0068                     read_digital_keypad@once:
  1037     0068                     	ds	1
  1038     0069                     _operation_mode:
  1039     0069                     	ds	1
  1040                           
  1041                           	psect	dataBANK1
  1042     00A0                     __pdataBANK1:
  1043     00A0                     _washing_prog:
  1044     00A0                     	ds	24
  1045     00B8                     _water_level_options:
  1046     00B8                     	ds	10
  1047                           
  1048                           	psect	inittext
  1049     1719                     init_fetch0:	
  1050                           ;	Called with low address in FSR and high address in W
  1051                           
  1052     1719  087E               	movf	btemp,w
  1053     171A  008A               	movwf	10
  1054     171B  087F               	movf	btemp+1,w
  1055     171C  0082               	movwf	2
  1056     171D                     init_ram0:	
  1057                           ;Called with:
  1058                           ;	high address of idata address in btemp 
  1059                           ;	low address of idata address in btemp+1 
  1060                           ;	low address of data in FSR
  1061                           ;	high address + 1 of data in btemp-1
  1062                           
  1063     171D  160A  118A  2719  160A  118A  	fcall	init_fetch0
  1064     1722  0080               	movwf	0
  1065     1723  0A84               	incf	4,f
  1066     1724  0804               	movf	4,w
  1067     1725  067D               	xorwf	btemp+-1,w
  1068     1726  1903               	btfsc	3,2
  1069     1727  3400               	retlw	0
  1070     1728  0AFF               	incf	btemp+1,f
  1071     1729  1903               	btfsc	3,2
  1072     172A  0AFE               	incf	btemp,f
  1073     172B  2F1D               	goto	init_ram0
  1074                           
  1075                           	psect	clrtext
  1076     16F0                     clear_ram0:	
  1077                           ;	Called with FSR containing the base address, and
  1078                           ;	W with the last address+1
  1079                           
  1080     16F0  0064               	clrwdt	;clear the watchdog before getting into this loop
  1081     16F1                     clrloop0:
  1082     16F1  0180               	clrf	0	;clear RAM location pointed to by FSR
  1083     16F2  0A84               	incf	4,f	;increment pointer
  1084     16F3  0604               	xorwf	4,w	;XOR with final address
  1085     16F4  1903               	btfsc	3,2	;have we reached the end yet?
  1086     16F5  3400               	retlw	0	;all done for this memory range, return
  1087     16F6  0604               	xorwf	4,w	;XOR again to restore value
  1088     16F7  2EF1               	goto	clrloop0	;do the next byte
  1089                           
  1090                           	psect	cstackCOMMON
  1091     0070                     __pcstackCOMMON:
  1092     0070                     ?_init_digital_keypad:
  1093     0070                     ?_init_clcd:	
  1094                           ; 1 bytes @ 0x0
  1095                           
  1096     0070                     ?_init_timer2:	
  1097                           ; 1 bytes @ 0x0
  1098                           
  1099     0070                     ?_read_digital_keypad:	
  1100                           ; 1 bytes @ 0x0
  1101                           
  1102     0070                     ?_power_on_screen:	
  1103                           ; 1 bytes @ 0x0
  1104                           
  1105     0070                     ?_set_timer:	
  1106                           ; 1 bytes @ 0x0
  1107                           
  1108     0070                     ?_clcd_clear:	
  1109                           ; 1 bytes @ 0x0
  1110                           
  1111     0070                     ?_washing_program_display:	
  1112                           ; 1 bytes @ 0x0
  1113                           
  1114     0070                     ?_water_level_display:	
  1115                           ; 1 bytes @ 0x0
  1116                           
  1117     0070                     ?_run_program:	
  1118                           ; 1 bytes @ 0x0
  1119                           
  1120     0070                     ?_door_status_check:	
  1121                           ; 1 bytes @ 0x0
  1122                           
  1123     0070                     ?_init_config:	
  1124                           ; 1 bytes @ 0x0
  1125                           
  1126     0070                     ?_main:	
  1127                           ; 1 bytes @ 0x0
  1128                           
  1129     0070                     ?_init_display_controller:	
  1130                           ; 1 bytes @ 0x0
  1131                           
  1132     0070                     ?_isr:	
  1133                           ; 1 bytes @ 0x0
  1134                           
  1135     0070                     ??_isr:	
  1136                           ; 1 bytes @ 0x0
  1137                           
  1138                           
  1139                           ; 1 bytes @ 0x0
  1140     0070                     	ds	2
  1141     0072                     ??_init_digital_keypad:
  1142     0072                     ??_init_timer2:	
  1143                           ; 1 bytes @ 0x2
  1144                           
  1145     0072                     ??_read_digital_keypad:	
  1146                           ; 1 bytes @ 0x2
  1147                           
  1148     0072                     ??_set_timer:	
  1149                           ; 1 bytes @ 0x2
  1150                           
  1151     0072                     ?_clcd_write:	
  1152                           ; 1 bytes @ 0x2
  1153                           
  1154     0072                     ?__Umul8_16:	
  1155                           ; 1 bytes @ 0x2
  1156                           
  1157     0072                     ?___wmul:	
  1158                           ; 2 bytes @ 0x2
  1159                           
  1160     0072                     ?___awdiv:	
  1161                           ; 2 bytes @ 0x2
  1162                           
  1163     0072                     ?___awmod:	
  1164                           ; 2 bytes @ 0x2
  1165                           
  1166     0072                     ?___xxtofl:	
  1167                           ; 2 bytes @ 0x2
  1168                           
  1169     0072                     clcd_write@mode:	
  1170                           ; 4 bytes @ 0x2
  1171                           
  1172     0072                     __Umul8_16@multiplicand:	
  1173                           ; 1 bytes @ 0x2
  1174                           
  1175     0072                     ___wmul@multiplier:	
  1176                           ; 1 bytes @ 0x2
  1177                           
  1178     0072                     ___awdiv@divisor:	
  1179                           ; 2 bytes @ 0x2
  1180                           
  1181     0072                     ___awmod@divisor:	
  1182                           ; 2 bytes @ 0x2
  1183                           
  1184     0072                     ___xxtofl@val:	
  1185                           ; 2 bytes @ 0x2
  1186                           
  1187                           
  1188                           ; 4 bytes @ 0x2
  1189     0072                     	ds	1
  1190     0073                     ??_clcd_write:
  1191     0073                     read_digital_keypad@mode:	
  1192                           ; 1 bytes @ 0x3
  1193                           
  1194                           
  1195                           ; 1 bytes @ 0x3
  1196     0073                     	ds	1
  1197     0074                     ??__Umul8_16:
  1198     0074                     ___wmul@multiplicand:	
  1199                           ; 1 bytes @ 0x4
  1200                           
  1201     0074                     ___awdiv@dividend:	
  1202                           ; 2 bytes @ 0x4
  1203                           
  1204     0074                     ___awmod@dividend:	
  1205                           ; 2 bytes @ 0x4
  1206                           
  1207                           
  1208                           ; 2 bytes @ 0x4
  1209     0074                     	ds	1
  1210     0075                     clcd_write@byte:
  1211                           
  1212                           ; 1 bytes @ 0x5
  1213     0075                     	ds	1
  1214     0076                     ?_clcd_print:
  1215     0076                     ??_clcd_clear:	
  1216                           ; 1 bytes @ 0x6
  1217                           
  1218     0076                     ??_init_display_controller:	
  1219                           ; 1 bytes @ 0x6
  1220                           
  1221     0076                     ??___wmul:	
  1222                           ; 1 bytes @ 0x6
  1223                           
  1224     0076                     ??___awdiv:	
  1225                           ; 1 bytes @ 0x6
  1226                           
  1227     0076                     ??___awmod:	
  1228                           ; 1 bytes @ 0x6
  1229                           
  1230     0076                     ??___xxtofl:	
  1231                           ; 1 bytes @ 0x6
  1232                           
  1233     0076                     ___awdiv@counter:	
  1234                           ; 1 bytes @ 0x6
  1235                           
  1236     0076                     ___awmod@counter:	
  1237                           ; 1 bytes @ 0x6
  1238                           
  1239     0076                     clcd_print@str:	
  1240                           ; 1 bytes @ 0x6
  1241                           
  1242     0076                     ___wmul@product:	
  1243                           ; 2 bytes @ 0x6
  1244                           
  1245                           
  1246                           ; 2 bytes @ 0x6
  1247     0076                     	ds	1
  1248     0077                     ___awdiv@sign:
  1249     0077                     ___awmod@sign:	
  1250                           ; 1 bytes @ 0x7
  1251                           
  1252                           
  1253                           ; 1 bytes @ 0x7
  1254     0077                     	ds	1
  1255     0078                     ??_init_clcd:
  1256     0078                     ??_init_config:	
  1257                           ; 1 bytes @ 0x8
  1258                           
  1259     0078                     clcd_print@addr:	
  1260                           ; 1 bytes @ 0x8
  1261                           
  1262     0078                     ___awdiv@quotient:	
  1263                           ; 1 bytes @ 0x8
  1264                           
  1265                           
  1266                           ; 2 bytes @ 0x8
  1267     0078                     	ds	1
  1268     0079                     ??_clcd_print:
  1269     0079                     ??_door_status_check:	
  1270                           ; 1 bytes @ 0x9
  1271                           
  1272                           
  1273                           ; 1 bytes @ 0x9
  1274     0079                     	ds	1
  1275     007A                     ??_clcd_putch:
  1276     007A                     ??_main:	
  1277                           ; 1 bytes @ 0xA
  1278                           
  1279                           
  1280                           	psect	cstackBANK0
  1281     0020                     __pcstackBANK0:	
  1282                           ; 1 bytes @ 0xA
  1283                           
  1284     0020                     ?_clcd_putch:
  1285     0020                     clcd_putch@addr:	
  1286                           ; 1 bytes @ 0x0
  1287                           
  1288     0020                     ___xxtofl@sign:	
  1289                           ; 1 bytes @ 0x0
  1290                           
  1291     0020                     __Umul8_16@product:	
  1292                           ; 1 bytes @ 0x0
  1293                           
  1294                           
  1295                           ; 2 bytes @ 0x0
  1296     0020                     	ds	1
  1297     0021                     clcd_putch@data:
  1298     0021                     ___xxtofl@exp:	
  1299                           ; 1 bytes @ 0x1
  1300                           
  1301                           
  1302                           ; 1 bytes @ 0x1
  1303     0021                     	ds	1
  1304     0022                     ??_power_on_screen:
  1305     0022                     ??_washing_program_display:	
  1306                           ; 1 bytes @ 0x2
  1307                           
  1308     0022                     ??_water_level_display:	
  1309                           ; 1 bytes @ 0x2
  1310                           
  1311     0022                     __Umul8_16@word_mpld:	
  1312                           ; 1 bytes @ 0x2
  1313                           
  1314     0022                     ___xxtofl@arg:	
  1315                           ; 2 bytes @ 0x2
  1316                           
  1317                           
  1318                           ; 4 bytes @ 0x2
  1319     0022                     	ds	2
  1320     0024                     washing_program_display@key:
  1321     0024                     water_level_display@key:	
  1322                           ; 1 bytes @ 0x4
  1323                           
  1324     0024                     __Umul8_16@multiplier:	
  1325                           ; 1 bytes @ 0x4
  1326                           
  1327                           
  1328                           ; 1 bytes @ 0x4
  1329     0024                     	ds	1
  1330     0025                     power_on_screen@i:
  1331                           
  1332                           ; 1 bytes @ 0x5
  1333     0025                     	ds	1
  1334     0026                     ?___flmul:
  1335     0026                     power_on_screen@i_143:	
  1336                           ; 4 bytes @ 0x6
  1337                           
  1338     0026                     ___flmul@b:	
  1339                           ; 1 bytes @ 0x6
  1340                           
  1341                           
  1342                           ; 4 bytes @ 0x6
  1343     0026                     	ds	4
  1344     002A                     ___flmul@a:
  1345                           
  1346                           ; 4 bytes @ 0xA
  1347     002A                     	ds	4
  1348     002E                     ??___flmul:
  1349                           
  1350                           ; 1 bytes @ 0xE
  1351     002E                     	ds	5
  1352     0033                     ___flmul@sign:
  1353                           
  1354                           ; 1 bytes @ 0x13
  1355     0033                     	ds	1
  1356     0034                     ___flmul@aexp:
  1357                           
  1358                           ; 1 bytes @ 0x14
  1359     0034                     	ds	1
  1360     0035                     ___flmul@grs:
  1361                           
  1362                           ; 4 bytes @ 0x15
  1363     0035                     	ds	4
  1364     0039                     ___flmul@bexp:
  1365                           
  1366                           ; 1 bytes @ 0x19
  1367     0039                     	ds	1
  1368     003A                     ___flmul@prod:
  1369                           
  1370                           ; 4 bytes @ 0x1A
  1371     003A                     	ds	4
  1372     003E                     ___flmul@temp:
  1373                           
  1374                           ; 2 bytes @ 0x1E
  1375     003E                     	ds	2
  1376     0040                     ?___fltol:
  1377     0040                     ___fltol@f1:	
  1378                           ; 4 bytes @ 0x20
  1379                           
  1380                           
  1381                           ; 4 bytes @ 0x20
  1382     0040                     	ds	4
  1383     0044                     ??___fltol:
  1384                           
  1385                           ; 1 bytes @ 0x24
  1386     0044                     	ds	4
  1387     0048                     ___fltol@sign1:
  1388                           
  1389                           ; 1 bytes @ 0x28
  1390     0048                     	ds	1
  1391     0049                     ___fltol@exp1:
  1392                           
  1393                           ; 1 bytes @ 0x29
  1394     0049                     	ds	1
  1395     004A                     ??_run_program:
  1396                           
  1397                           ; 1 bytes @ 0x2A
  1398     004A                     	ds	6
  1399     0050                     run_program@key:
  1400                           
  1401                           ; 1 bytes @ 0x30
  1402     0050                     	ds	1
  1403     0051                     run_program@wait:
  1404                           
  1405                           ; 2 bytes @ 0x31
  1406     0051                     	ds	2
  1407     0053                     main@wait:
  1408                           
  1409                           ; 2 bytes @ 0x33
  1410     0053                     	ds	2
  1411     0055                     main@key:
  1412                           
  1413                           ; 1 bytes @ 0x35
  1414     0055                     	ds	1
  1415                           
  1416                           	psect	maintext
  1417     0E0E                     __pmaintext:	
  1418 ;;
  1419 ;;Main: autosize = 0, tempsize = 0, incstack = 0, save=0
  1420 ;;
  1421 ;; *************** function _main *****************
  1422 ;; Defined at:
  1423 ;;		line 48 in file "main.c"
  1424 ;; Parameters:    Size  Location     Type
  1425 ;;		None
  1426 ;; Auto vars:     Size  Location     Type
  1427 ;;  wait            2   51[BANK0 ] unsigned int 
  1428 ;;  key             1   53[BANK0 ] unsigned char 
  1429 ;; Return value:  Size  Location     Type
  1430 ;;                  1    wreg      void 
  1431 ;; Registers used:
  1432 ;;		wreg, fsr0l, fsr0h, status,2, status,0, btemp+1, pclath, cstack
  1433 ;; Tracked objects:
  1434 ;;		On entry : B00/0
  1435 ;;		On exit  : 0/0
  1436 ;;		Unchanged: 0/0
  1437 ;; Data sizes:     COMMON   BANK0   BANK1   BANK3   BANK2
  1438 ;;      Params:         0       0       0       0       0
  1439 ;;      Locals:         0       3       0       0       0
  1440 ;;      Temps:          0       0       0       0       0
  1441 ;;      Totals:         0       3       0       0       0
  1442 ;;Total ram usage:        3 bytes
  1443 ;; Hardware stack levels required when called: 5
  1444 ;; This function calls:
  1445 ;;		_clcd_clear
  1446 ;;		_clcd_print
  1447 ;;		_init_config
  1448 ;;		_power_on_screen
  1449 ;;		_read_digital_keypad
  1450 ;;		_run_program
  1451 ;;		_set_timer
  1452 ;;		_washing_program_display
  1453 ;;		_water_level_display
  1454 ;; This function is called by:
  1455 ;;		Startup code after reset
  1456 ;; This function uses a non-reentrant model
  1457 ;;
  1458                           
  1459     0E0E                     _main:	
  1460                           ;psect for function _main
  1461                           
  1462     0E0E                     l3092:	
  1463                           ;incstack = 0
  1464                           ; Regs used in _main: [wreg-fsr0h+status,2+status,0+btemp+1+pclath+cstack]
  1465                           
  1466                           
  1467                           ;main.c: 49:     {
  1468     0E0E  120A  158A  207F  120A  158A  	fcall	_init_config
  1469     0E13                     l3094:
  1470     0E13  3001               	movlw	1
  1471     0E14  120A  158A  222A  120A  158A  	fcall	_read_digital_keypad
  1472     0E19                     l3096:
  1473                           
  1474                           ;main.c: 53:         {
  1475     0E19  3041               	movlw	low (STR_18| (0+32768))
  1476     0E1A  00F6               	movwf	clcd_print@str
  1477     0E1B  3087               	movlw	high (STR_18| (0+32768))
  1478     0E1C  00F7               	movwf	clcd_print@str+1
  1479     0E1D  3081               	movlw	129
  1480     0E1E  00F8               	movwf	clcd_print@addr
  1481     0E1F  160A  118A  27D1  120A  158A  	fcall	_clcd_print
  1482     0E24                     l3098:
  1483                           
  1484                           ;main.c: 54:             operation_mode = 0x02;
  1485     0E24  3008               	movlw	low (STR_19| (0+32768))
  1486     0E25  00F6               	movwf	clcd_print@str
  1487     0E26  3088               	movlw	high (STR_19| (0+32768))
  1488     0E27  00F7               	movwf	clcd_print@str+1
  1489     0E28  30C4               	movlw	196
  1490     0E29  00F8               	movwf	clcd_print@addr
  1491     0E2A  160A  118A  27D1  120A  158A  	fcall	_clcd_print
  1492     0E2F                     l3100:
  1493                           
  1494                           ;main.c: 55:             reset_mode = 0x11;
  1495     0E2F  3021               	movlw	low (STR_20| (0+32768))
  1496     0E30  00F6               	movwf	clcd_print@str
  1497     0E31  3087               	movlw	high (STR_20| (0+32768))
  1498     0E32  00F7               	movwf	clcd_print@str+1
  1499     0E33  3091               	movlw	145
  1500     0E34  00F8               	movwf	clcd_print@addr
  1501     0E35  160A  118A  27D1  120A  158A  	fcall	_clcd_print
  1502                           
  1503                           ;main.c: 58: 
  1504     0E3A  2E4F               	goto	l3106
  1505     0E3B                     l3102:
  1506                           
  1507                           ;main.c: 59:         else if(key == 0xB7 && operation_mode == 0x02);main.c: 60:         
      +                          {
  1508     0E3B  30B8               	movlw	184
  1509     0E3C  1283               	bcf	3,5	;RP0=0, select bank0
  1510     0E3D  1303               	bcf	3,6	;RP1=0, select bank0
  1511     0E3E  00D3               	movwf	main@wait
  1512     0E3F  300B               	movlw	11
  1513     0E40  00D4               	movwf	main@wait+1
  1514     0E41                     l3104:
  1515     0E41  3001               	movlw	1
  1516     0E42  02D3               	subwf	main@wait,f
  1517     0E43  3000               	movlw	0
  1518     0E44  1C03               	skipc
  1519     0E45  03D4               	decf	main@wait+1,f
  1520     0E46  02D4               	subwf	main@wait+1,f
  1521     0E47  0A53               	incf	main@wait,w
  1522     0E48  1D03               	skipz
  1523     0E49  2E4E               	goto	u3551
  1524     0E4A  0A54               	incf	main@wait+1,w
  1525     0E4B  1D03               	btfss	3,2
  1526     0E4C  2E4E               	goto	u3551
  1527     0E4D  2E4F               	goto	u3550
  1528     0E4E                     u3551:
  1529     0E4E  2E41               	goto	l3104
  1530     0E4F                     u3550:
  1531     0E4F                     l3106:
  1532                           
  1533                           ;main.c: 58: 
  1534     0E4F  3001               	movlw	1
  1535     0E50  120A  158A  222A  120A  158A  	fcall	_read_digital_keypad
  1536     0E55  3A2F               	xorlw	47
  1537     0E56  1D03               	skipz
  1538     0E57  2E59               	goto	u3561
  1539     0E58  2E5A               	goto	u3560
  1540     0E59                     u3561:
  1541     0E59  2E3B               	goto	l3102
  1542     0E5A                     u3560:
  1543     0E5A                     l3108:
  1544                           
  1545                           ;main.c: 63:             operation_mode = 0x03;
  1546     0E5A  120A  158A  21CF  120A  158A  	fcall	_power_on_screen
  1547     0E5F                     l3110:
  1548                           
  1549                           ;main.c: 66:             clcd_print("SW5: START", (0xC0 + 1));;main.c: 67:             c
      +                          lcd_print("SW6: STOP", (0x90 + 1));
  1550     0E5F  3001               	movlw	1
  1551     0E60  120A  158A  222A  120A  158A  	fcall	_read_digital_keypad
  1552     0E65  1283               	bcf	3,5	;RP0=0, select bank0
  1553     0E66  1303               	bcf	3,6	;RP1=0, select bank0
  1554     0E67  00D5               	movwf	main@key
  1555     0E68                     l3112:
  1556                           
  1557                           ;main.c: 69: 
  1558     0E68  30B7               	movlw	183
  1559     0E69  0655               	xorwf	main@key,w
  1560     0E6A  1D03               	btfss	3,2
  1561     0E6B  2E6D               	goto	u3571
  1562     0E6C  2E6E               	goto	u3570
  1563     0E6D                     u3571:
  1564     0E6D  2E78               	goto	l3118
  1565     0E6E                     u3570:
  1566     0E6E                     l3114:
  1567     0E6E  0369               	decf	_operation_mode,w
  1568     0E6F  1D03               	btfss	3,2
  1569     0E70  2E72               	goto	u3581
  1570     0E71  2E73               	goto	u3580
  1571     0E72                     u3581:
  1572     0E72  2E78               	goto	l3118
  1573     0E73                     u3580:
  1574     0E73                     l3116:
  1575                           
  1576                           ;main.c: 70: ;main.c: 71:         if((key == 0x2F) && operation_mode == 0x05)
  1577     0E73  3002               	movlw	2
  1578     0E74  00E9               	movwf	_operation_mode
  1579                           
  1580                           ;main.c: 72:         {
  1581     0E75  3011               	movlw	17
  1582     0E76  00E5               	movwf	_reset_mode
  1583                           
  1584                           ;main.c: 73:             TMR2ON = 1;
  1585     0E77  2EB3               	goto	l3134
  1586     0E78                     l3118:
  1587     0E78  30B7               	movlw	183
  1588     0E79  0655               	xorwf	main@key,w
  1589     0E7A  1D03               	btfss	3,2
  1590     0E7B  2E7D               	goto	u3591
  1591     0E7C  2E7E               	goto	u3590
  1592     0E7D                     u3591:
  1593     0E7D  2EB3               	goto	l3134
  1594     0E7E                     u3590:
  1595     0E7E                     l3120:
  1596     0E7E  3002               	movlw	2
  1597     0E7F  0669               	xorwf	_operation_mode,w
  1598     0E80  1D03               	btfss	3,2
  1599     0E81  2E83               	goto	u3601
  1600     0E82  2E84               	goto	u3600
  1601     0E83                     u3601:
  1602     0E83  2EB3               	goto	l3134
  1603     0E84                     u3600:
  1604     0E84                     l3122:
  1605                           
  1606                           ;main.c: 77:         switch(operation_mode);main.c: 78:         {
  1607     0E84  120A  158A  2706  120A  158A  	fcall	_set_timer
  1608     0E89                     l3124:
  1609                           
  1610                           ;main.c: 80:                 washing_program_display(key);
  1611     0E89  3003               	movlw	3
  1612     0E8A  1283               	bcf	3,5	;RP0=0, select bank0
  1613     0E8B  1303               	bcf	3,6	;RP1=0, select bank0
  1614     0E8C  00E9               	movwf	_operation_mode
  1615     0E8D                     l3126:
  1616                           
  1617                           ;main.c: 81:                 break;
  1618     0E8D  160A  118A  270C  120A  158A  	fcall	_clcd_clear
  1619     0E92                     l3128:
  1620                           
  1621                           ;main.c: 82:             case 0x02:
  1622     0E92  3079               	movlw	low (STR_21| (0+32768))
  1623     0E93  00F6               	movwf	clcd_print@str
  1624     0E94  3087               	movlw	high (STR_21| (0+32768))
  1625     0E95  00F7               	movwf	clcd_print@str+1
  1626     0E96  3081               	movlw	129
  1627     0E97  00F8               	movwf	clcd_print@addr
  1628     0E98  160A  118A  27D1  120A  158A  	fcall	_clcd_print
  1629     0E9D                     l3130:
  1630                           
  1631                           ;main.c: 83:                 water_level_display(key);
  1632     0E9D  30B6               	movlw	low (STR_22| (0+32768))
  1633     0E9E  00F6               	movwf	clcd_print@str
  1634     0E9F  3087               	movlw	high (STR_22| (0+32768))
  1635     0EA0  00F7               	movwf	clcd_print@str+1
  1636     0EA1  30C1               	movlw	193
  1637     0EA2  00F8               	movwf	clcd_print@addr
  1638     0EA3  160A  118A  27D1  120A  158A  	fcall	_clcd_print
  1639     0EA8                     l3132:
  1640                           
  1641                           ;main.c: 84:                 break;
  1642     0EA8  30CC               	movlw	low (STR_23| (0+32768))
  1643     0EA9  00F6               	movwf	clcd_print@str
  1644     0EAA  3087               	movlw	high (STR_23| (0+32768))
  1645     0EAB  00F7               	movwf	clcd_print@str+1
  1646     0EAC  3091               	movlw	145
  1647     0EAD  00F8               	movwf	clcd_print@addr
  1648     0EAE  160A  118A  27D1  120A  158A  	fcall	_clcd_print
  1649     0EB3                     l3134:
  1650                           
  1651                           ;main.c: 88:                     operation_mode = 0x04;
  1652     0EB3  302F               	movlw	47
  1653     0EB4  1283               	bcf	3,5	;RP0=0, select bank0
  1654     0EB5  1303               	bcf	3,6	;RP1=0, select bank0
  1655     0EB6  0655               	xorwf	main@key,w
  1656     0EB7  1D03               	btfss	3,2
  1657     0EB8  2EBA               	goto	u3611
  1658     0EB9  2EBB               	goto	u3610
  1659     0EBA                     u3611:
  1660     0EBA  2EF1               	goto	l3162
  1661     0EBB                     u3610:
  1662     0EBB                     l3136:
  1663     0EBB  3005               	movlw	5
  1664     0EBC  0669               	xorwf	_operation_mode,w
  1665     0EBD  1D03               	btfss	3,2
  1666     0EBE  2EC0               	goto	u3621
  1667     0EBF  2EC1               	goto	u3620
  1668     0EC0                     u3621:
  1669     0EC0  2EF1               	goto	l3162
  1670     0EC1                     u3620:
  1671     0EC1                     l3138:
  1672                           
  1673                           ;main.c: 89:                     reset_mode = 0x12;;main.c: 90:                     cont
      +                          inue;
  1674     0EC1  1512               	bsf	18,2	;volatile
  1675                           
  1676                           ;main.c: 91:                 }
  1677     0EC2  1507               	bsf	7,2	;volatile
  1678     0EC3                     l3140:
  1679                           
  1680                           ;main.c: 92:                 else if(key == 0x1F)
  1681     0EC3  3004               	movlw	4
  1682     0EC4  00E9               	movwf	_operation_mode
  1683     0EC5  2EF1               	goto	l3162
  1684     0EC6                     l3142:
  1685                           
  1686                           ;main.c: 97:                 }
  1687     0EC6  0855               	movf	main@key,w
  1688     0EC7  120A  158A  2422  120A  158A  	fcall	_washing_program_display
  1689                           
  1690                           ;main.c: 98:                 break;
  1691     0ECC  2EFF               	goto	l3164
  1692     0ECD                     l3144:
  1693                           
  1694                           ;main.c: 100:                 run_program(key);
  1695     0ECD  0855               	movf	main@key,w
  1696     0ECE  120A  158A  2518  120A  158A  	fcall	_water_level_display
  1697                           
  1698                           ;main.c: 101:                 break;
  1699     0ED3  2EFF               	goto	l3164
  1700     0ED4                     l3146:
  1701                           
  1702                           ;main.c: 103:         reset_mode = 0x00;
  1703     0ED4  302F               	movlw	47
  1704     0ED5  0655               	xorwf	main@key,w
  1705     0ED6  1D03               	btfss	3,2
  1706     0ED7  2ED9               	goto	u3631
  1707     0ED8  2EDA               	goto	u3630
  1708     0ED9                     u3631:
  1709     0ED9  2EDF               	goto	l3152
  1710     0EDA                     u3630:
  1711     0EDA                     l3148:
  1712                           
  1713                           ;main.c: 104: ;main.c: 105:     }
  1714     0EDA  3004               	movlw	4
  1715     0EDB  00E9               	movwf	_operation_mode
  1716                           
  1717                           ;main.c: 106: 
  1718     0EDC  3012               	movlw	18
  1719     0EDD  00E5               	movwf	_reset_mode
  1720                           
  1721                           ;main.c: 107: 
  1722     0EDE  2E5F               	goto	l3110
  1723     0EDF                     l3152:
  1724     0EDF  301F               	movlw	31
  1725     0EE0  0655               	xorwf	main@key,w
  1726     0EE1  1D03               	btfss	3,2
  1727     0EE2  2EE4               	goto	u3641
  1728     0EE3  2EE5               	goto	u3640
  1729     0EE4                     u3641:
  1730     0EE4  2EFF               	goto	l3164
  1731     0EE5                     u3640:
  1732     0EE5                     l3154:
  1733                           
  1734                           ;main.c: 110: ;main.c: 111: void power_on_screen(void)
  1735     0EE5  01E9               	clrf	_operation_mode
  1736     0EE6  0AE9               	incf	_operation_mode,f
  1737     0EE7                     l3156:
  1738                           
  1739                           ;main.c: 112: {
  1740     0EE7  3010               	movlw	16
  1741     0EE8  00E5               	movwf	_reset_mode
  1742                           
  1743                           ;main.c: 113: 
  1744     0EE9  2E5F               	goto	l3110
  1745     0EEA                     l3158:
  1746                           
  1747                           ;main.c: 117:     }
  1748     0EEA  0855               	movf	main@key,w
  1749     0EEB  120A  118A  2037  120A  158A  	fcall	_run_program
  1750                           
  1751                           ;main.c: 118: 
  1752     0EF0  2EFF               	goto	l3164
  1753     0EF1                     l3162:
  1754     0EF1  0869               	movf	_operation_mode,w
  1755                           
  1756                           ; Switch size 1, requested type "simple"
  1757                           ; Number of cases is 4, Range of values is 1 to 4
  1758                           ; switch strategies available:
  1759                           ; Name         Instructions Cycles
  1760                           ; simple_byte           13     7 (average)
  1761                           ; direct_byte           23    11 (fixed)
  1762                           ; jumptable            263     9 (fixed)
  1763                           ;	Chosen strategy is simple_byte
  1764     0EF2  3A01               	xorlw	1	; case 1
  1765     0EF3  1903               	skipnz
  1766     0EF4  2EC6               	goto	l3142
  1767     0EF5  3A03               	xorlw	3	; case 2
  1768     0EF6  1903               	skipnz
  1769     0EF7  2ECD               	goto	l3144
  1770     0EF8  3A01               	xorlw	1	; case 3
  1771     0EF9  1903               	skipnz
  1772     0EFA  2ED4               	goto	l3146
  1773     0EFB  3A07               	xorlw	7	; case 4
  1774     0EFC  1903               	skipnz
  1775     0EFD  2EEA               	goto	l3158
  1776     0EFE  2EFF               	goto	l3164
  1777     0EFF                     l3164:
  1778                           
  1779                           ;main.c: 120:     clcd_print("Washing Machine", (0x90 + 1));
  1780     0EFF  1283               	bcf	3,5	;RP0=0, select bank0
  1781     0F00  1303               	bcf	3,6	;RP1=0, select bank0
  1782     0F01  01E5               	clrf	_reset_mode
  1783     0F02  2E5F               	goto	l3110
  1784     0F03  120A  118A  280C   	ljmp	start
  1785     0F06                     __end_of_main:
  1786                           
  1787                           	psect	text1
  1788     0D18                     __ptext1:	
  1789 ;; *************** function _water_level_display *****************
  1790 ;; Defined at:
  1791 ;;		line 191 in file "main.c"
  1792 ;; Parameters:    Size  Location     Type
  1793 ;;  key             1    wreg     unsigned char 
  1794 ;; Auto vars:     Size  Location     Type
  1795 ;;  key             1    4[BANK0 ] unsigned char 
  1796 ;; Return value:  Size  Location     Type
  1797 ;;                  1    wreg      void 
  1798 ;; Registers used:
  1799 ;;		wreg, fsr0l, fsr0h, status,2, status,0, btemp+1, pclath, cstack
  1800 ;; Tracked objects:
  1801 ;;		On entry : 0/0
  1802 ;;		On exit  : 0/0
  1803 ;;		Unchanged: 0/0
  1804 ;; Data sizes:     COMMON   BANK0   BANK1   BANK3   BANK2
  1805 ;;      Params:         0       0       0       0       0
  1806 ;;      Locals:         0       1       0       0       0
  1807 ;;      Temps:          0       2       0       0       0
  1808 ;;      Totals:         0       3       0       0       0
  1809 ;;Total ram usage:        3 bytes
  1810 ;; Hardware stack levels used: 1
  1811 ;; Hardware stack levels required when called: 3
  1812 ;; This function calls:
  1813 ;;		_clcd_clear
  1814 ;;		_clcd_print
  1815 ;;		_clcd_putch
  1816 ;; This function is called by:
  1817 ;;		_main
  1818 ;; This function uses a non-reentrant model
  1819 ;;
  1820                           
  1821     0D18                     _water_level_display:	
  1822                           ;psect for function _water_level_display
  1823                           
  1824                           
  1825                           ;incstack = 0
  1826                           ; Regs used in _water_level_display: [wreg-fsr0h+status,2+status,0+btemp+1+pclath+cstack
      +                          ]
  1827                           ;water_level_display@key stored from wreg
  1828     0D18  1283               	bcf	3,5	;RP0=0, select bank0
  1829     0D19  1303               	bcf	3,6	;RP1=0, select bank0
  1830     0D1A  00A4               	movwf	water_level_display@key
  1831     0D1B                     l2946:
  1832                           
  1833                           ;main.c: 191:         clcd_clear();;main.c: 192: ;main.c: 193: 
  1834     0D1B  3011               	movlw	17
  1835     0D1C  0665               	xorwf	_reset_mode,w
  1836     0D1D  1D03               	btfss	3,2
  1837     0D1E  2D20               	goto	u3381
  1838     0D1F  2D21               	goto	u3380
  1839     0D20                     u3381:
  1840     0D20  2D27               	goto	l2952
  1841     0D21                     u3380:
  1842     0D21                     l2948:
  1843                           
  1844                           ;main.c: 194:     };main.c: 195: 
  1845     0D21  01FA               	clrf	_water_level_index
  1846     0D22                     l2950:
  1847                           
  1848                           ;main.c: 196: 
  1849     0D22  160A  118A  270C  120A  158A  	fcall	_clcd_clear
  1850     0D27                     l2952:
  1851                           
  1852                           ;main.c: 200: 
  1853     0D27  3037               	movlw	55
  1854     0D28  1283               	bcf	3,5	;RP0=0, select bank0
  1855     0D29  1303               	bcf	3,6	;RP1=0, select bank0
  1856     0D2A  0624               	xorwf	water_level_display@key,w
  1857     0D2B  1D03               	btfss	3,2
  1858     0D2C  2D2E               	goto	u3391
  1859     0D2D  2D2F               	goto	u3390
  1860     0D2E                     u3391:
  1861     0D2E  2D3F               	goto	l2962
  1862     0D2F                     u3390:
  1863     0D2F                     l2954:
  1864                           
  1865                           ;main.c: 201:     if(water_level_index <=2);main.c: 202:     {
  1866     0D2F  3001               	movlw	1
  1867     0D30  00FF               	movwf	btemp+1
  1868     0D31  087F               	movf	btemp+1,w
  1869     0D32  07FA               	addwf	_water_level_index,f
  1870     0D33                     l2956:
  1871                           
  1872                           ;main.c: 204:         clcd_print(water_level_options[water_level_index + 1], (0x90 + 2))
      +                          ;
  1873     0D33  3005               	movlw	5
  1874     0D34  067A               	xorwf	_water_level_index,w
  1875     0D35  1D03               	btfss	3,2
  1876     0D36  2D38               	goto	u3401
  1877     0D37  2D39               	goto	u3400
  1878     0D38                     u3401:
  1879     0D38  2D3A               	goto	l2960
  1880     0D39                     u3400:
  1881     0D39                     l2958:
  1882                           
  1883                           ;main.c: 205:         clcd_print(water_level_options[water_level_index + 2], (0xD0 + 2))
      +                          ;;main.c: 206:     }
  1884     0D39  01FA               	clrf	_water_level_index
  1885     0D3A                     l2960:
  1886                           
  1887                           ;main.c: 208:     else if(water_level_index == 3)
  1888     0D3A  160A  118A  270C  120A  158A  	fcall	_clcd_clear
  1889     0D3F                     l2962:
  1890                           
  1891                           ;main.c: 214: 
  1892     0D3F  305F               	movlw	low (STR_27| (0+32768))
  1893     0D40  00F6               	movwf	clcd_print@str
  1894     0D41  3087               	movlw	high (STR_27| (0+32768))
  1895     0D42  00F7               	movwf	clcd_print@str+1
  1896     0D43  3080               	movlw	128
  1897     0D44  00F8               	movwf	clcd_print@addr
  1898     0D45  160A  118A  27D1  120A  158A  	fcall	_clcd_print
  1899     0D4A                     l2964:
  1900                           
  1901                           ;main.c: 215:     else if(water_level_index == 4)
  1902     0D4A  30C0               	movlw	192
  1903     0D4B  1283               	bcf	3,5	;RP0=0, select bank0
  1904     0D4C  1303               	bcf	3,6	;RP1=0, select bank0
  1905     0D4D  00A0               	movwf	clcd_putch@addr
  1906     0D4E  302A               	movlw	42
  1907     0D4F  160A  118A  272C  120A  158A  	fcall	_clcd_putch
  1908     0D54                     l2966:
  1909                           
  1910                           ;main.c: 218:         clcd_print(water_level_options[0], (0x90 + 2));
  1911     0D54  3003               	movlw	3
  1912     0D55  027A               	subwf	_water_level_index,w
  1913     0D56  1803               	skipnc
  1914     0D57  2D59               	goto	u3411
  1915     0D58  2D5A               	goto	u3410
  1916     0D59                     u3411:
  1917     0D59  2D9A               	goto	l2970
  1918     0D5A                     u3410:
  1919     0D5A                     l2968:
  1920                           
  1921                           ;main.c: 219:         clcd_print(water_level_options[1], (0xD0 + 2));;main.c: 220:     }
  1922     0D5A  087A               	movf	_water_level_index,w
  1923     0D5B  1283               	bcf	3,5	;RP0=0, select bank0
  1924     0D5C  1303               	bcf	3,6	;RP1=0, select bank0
  1925     0D5D  00A2               	movwf	??_water_level_display
  1926     0D5E  0722               	addwf	??_water_level_display,w
  1927     0D5F  3EB8               	addlw	(low (_water_level_options| 0))& (0+255)
  1928     0D60  0084               	movwf	4
  1929     0D61  1383               	bcf	3,7	;select IRP bank1
  1930     0D62  0800               	movf	0,w
  1931     0D63  00F6               	movwf	clcd_print@str
  1932     0D64  0A84               	incf	4,f
  1933     0D65  0800               	movf	0,w
  1934     0D66  0384               	decf	4,f
  1935     0D67  00F7               	movwf	clcd_print@str+1
  1936     0D68  30C2               	movlw	194
  1937     0D69  00F8               	movwf	clcd_print@addr
  1938     0D6A  160A  118A  27D1  120A  158A  	fcall	_clcd_print
  1939                           
  1940                           ;main.c: 221: }
  1941     0D6F  087A               	movf	_water_level_index,w
  1942     0D70  1283               	bcf	3,5	;RP0=0, select bank0
  1943     0D71  1303               	bcf	3,6	;RP1=0, select bank0
  1944     0D72  00A2               	movwf	??_water_level_display
  1945     0D73  0722               	addwf	??_water_level_display,w
  1946     0D74  3EBA               	addlw	(low ((_water_level_options| 0+2)))& (0+255)
  1947     0D75  0084               	movwf	4
  1948     0D76  1383               	bcf	3,7	;select IRP bank1
  1949     0D77  0800               	movf	0,w
  1950     0D78  00F6               	movwf	clcd_print@str
  1951     0D79  0A84               	incf	4,f
  1952     0D7A  0800               	movf	0,w
  1953     0D7B  0384               	decf	4,f
  1954     0D7C  00F7               	movwf	clcd_print@str+1
  1955     0D7D  3092               	movlw	146
  1956     0D7E  00F8               	movwf	clcd_print@addr
  1957     0D7F  160A  118A  27D1  120A  158A  	fcall	_clcd_print
  1958                           
  1959                           ;main.c: 222: 
  1960     0D84  087A               	movf	_water_level_index,w
  1961     0D85  1283               	bcf	3,5	;RP0=0, select bank0
  1962     0D86  1303               	bcf	3,6	;RP1=0, select bank0
  1963     0D87  00A2               	movwf	??_water_level_display
  1964     0D88  0722               	addwf	??_water_level_display,w
  1965     0D89  3EBC               	addlw	(low ((_water_level_options| 0+4)))& (0+255)
  1966     0D8A  0084               	movwf	4
  1967     0D8B  1383               	bcf	3,7	;select IRP bank1
  1968     0D8C  0800               	movf	0,w
  1969     0D8D  00F6               	movwf	clcd_print@str
  1970     0D8E  0A84               	incf	4,f
  1971     0D8F  0800               	movf	0,w
  1972     0D90  0384               	decf	4,f
  1973     0D91  00F7               	movwf	clcd_print@str+1
  1974     0D92  30D2               	movlw	210
  1975     0D93  00F8               	movwf	clcd_print@addr
  1976     0D94  160A  118A  27D1  120A  158A  	fcall	_clcd_print
  1977                           
  1978                           ;main.c: 223: void set_timer(void)
  1979     0D99  2E0D               	goto	l125
  1980     0D9A                     l2970:
  1981     0D9A  3003               	movlw	3
  1982     0D9B  067A               	xorwf	_water_level_index,w
  1983     0D9C  1D03               	btfss	3,2
  1984     0D9D  2D9F               	goto	u3421
  1985     0D9E  2DA0               	goto	u3420
  1986     0D9F                     u3421:
  1987     0D9F  2DD8               	goto	l2974
  1988     0DA0                     u3420:
  1989     0DA0                     l2972:
  1990                           
  1991                           ;main.c: 226:     {;main.c: 227: 
  1992     0DA0  087A               	movf	_water_level_index,w
  1993     0DA1  1283               	bcf	3,5	;RP0=0, select bank0
  1994     0DA2  1303               	bcf	3,6	;RP1=0, select bank0
  1995     0DA3  00A2               	movwf	??_water_level_display
  1996     0DA4  0722               	addwf	??_water_level_display,w
  1997     0DA5  3EB8               	addlw	(low (_water_level_options| 0))& (0+255)
  1998     0DA6  0084               	movwf	4
  1999     0DA7  1383               	bcf	3,7	;select IRP bank1
  2000     0DA8  0800               	movf	0,w
  2001     0DA9  00F6               	movwf	clcd_print@str
  2002     0DAA  0A84               	incf	4,f
  2003     0DAB  0800               	movf	0,w
  2004     0DAC  0384               	decf	4,f
  2005     0DAD  00F7               	movwf	clcd_print@str+1
  2006     0DAE  30C2               	movlw	194
  2007     0DAF  00F8               	movwf	clcd_print@addr
  2008     0DB0  160A  118A  27D1  120A  158A  	fcall	_clcd_print
  2009                           
  2010                           ;main.c: 228:         case 0:
  2011     0DB5  087A               	movf	_water_level_index,w
  2012     0DB6  1283               	bcf	3,5	;RP0=0, select bank0
  2013     0DB7  1303               	bcf	3,6	;RP1=0, select bank0
  2014     0DB8  00A2               	movwf	??_water_level_display
  2015     0DB9  0722               	addwf	??_water_level_display,w
  2016     0DBA  3EBA               	addlw	(low ((_water_level_options| 0+2)))& (0+255)
  2017     0DBB  0084               	movwf	4
  2018     0DBC  1383               	bcf	3,7	;select IRP bank1
  2019     0DBD  0800               	movf	0,w
  2020     0DBE  00F6               	movwf	clcd_print@str
  2021     0DBF  0A84               	incf	4,f
  2022     0DC0  0800               	movf	0,w
  2023     0DC1  0384               	decf	4,f
  2024     0DC2  00F7               	movwf	clcd_print@str+1
  2025     0DC3  3092               	movlw	146
  2026     0DC4  00F8               	movwf	clcd_print@addr
  2027     0DC5  160A  118A  27D1  120A  158A  	fcall	_clcd_print
  2028                           
  2029                           ;main.c: 229:             switch(water_level_index)
  2030     0DCA  1683               	bsf	3,5	;RP0=1, select bank1
  2031     0DCB  1303               	bcf	3,6	;RP1=0, select bank1
  2032     0DCC  083A               	movf	(low ((_water_level_options| 0+2)))^(0+128),w
  2033     0DCD  00F6               	movwf	clcd_print@str
  2034     0DCE  083B               	movf	((low ((_water_level_options| 0+2))+1))^(0+128),w
  2035     0DCF  00F7               	movwf	clcd_print@str+1
  2036     0DD0  30D2               	movlw	210
  2037     0DD1  00F8               	movwf	clcd_print@addr
  2038     0DD2  160A  118A  27D1  120A  158A  	fcall	_clcd_print
  2039                           
  2040                           ;main.c: 230:             {
  2041     0DD7  2E0D               	goto	l125
  2042     0DD8                     l2974:
  2043     0DD8  3004               	movlw	4
  2044     0DD9  067A               	xorwf	_water_level_index,w
  2045     0DDA  1D03               	btfss	3,2
  2046     0DDB  2DDD               	goto	u3431
  2047     0DDC  2DDE               	goto	u3430
  2048     0DDD                     u3431:
  2049     0DDD  2E0D               	goto	l125
  2050     0DDE                     u3430:
  2051     0DDE                     l2976:
  2052                           
  2053                           ;main.c: 233:                     sec = 33;;main.c: 234:                     min = 0;
  2054     0DDE  087A               	movf	_water_level_index,w
  2055     0DDF  1283               	bcf	3,5	;RP0=0, select bank0
  2056     0DE0  1303               	bcf	3,6	;RP1=0, select bank0
  2057     0DE1  00A2               	movwf	??_water_level_display
  2058     0DE2  0722               	addwf	??_water_level_display,w
  2059     0DE3  3EB8               	addlw	(low (_water_level_options| 0))& (0+255)
  2060     0DE4  0084               	movwf	4
  2061     0DE5  1383               	bcf	3,7	;select IRP bank1
  2062     0DE6  0800               	movf	0,w
  2063     0DE7  00F6               	movwf	clcd_print@str
  2064     0DE8  0A84               	incf	4,f
  2065     0DE9  0800               	movf	0,w
  2066     0DEA  0384               	decf	4,f
  2067     0DEB  00F7               	movwf	clcd_print@str+1
  2068     0DEC  30C2               	movlw	194
  2069     0DED  00F8               	movwf	clcd_print@addr
  2070     0DEE  160A  118A  27D1  120A  158A  	fcall	_clcd_print
  2071                           
  2072                           ;main.c: 235:                     break;
  2073     0DF3  1683               	bsf	3,5	;RP0=1, select bank1
  2074     0DF4  1303               	bcf	3,6	;RP1=0, select bank1
  2075     0DF5  0838               	movf	_water_level_options^(0+128),w
  2076     0DF6  00F6               	movwf	clcd_print@str
  2077     0DF7  0839               	movf	(_water_level_options+1)^(0+128),w
  2078     0DF8  00F7               	movwf	clcd_print@str+1
  2079     0DF9  3092               	movlw	146
  2080     0DFA  00F8               	movwf	clcd_print@addr
  2081     0DFB  160A  118A  27D1  120A  158A  	fcall	_clcd_print
  2082                           
  2083                           ;main.c: 236:                 case 0:
  2084     0E00  1683               	bsf	3,5	;RP0=1, select bank1
  2085     0E01  1303               	bcf	3,6	;RP1=0, select bank1
  2086     0E02  083A               	movf	(low ((_water_level_options| 0+2)))^(0+128),w
  2087     0E03  00F6               	movwf	clcd_print@str
  2088     0E04  083B               	movf	((low ((_water_level_options| 0+2))+1))^(0+128),w
  2089     0E05  00F7               	movwf	clcd_print@str+1
  2090     0E06  30D2               	movlw	210
  2091     0E07  00F8               	movwf	clcd_print@addr
  2092     0E08  160A  118A  27D1  120A  158A  	fcall	_clcd_print
  2093     0E0D                     l125:
  2094     0E0D  0008               	return
  2095     0E0E                     __end_of_water_level_display:
  2096                           
  2097                           	psect	text2
  2098     0C22                     __ptext2:	
  2099 ;; *************** function _washing_program_display *****************
  2100 ;; Defined at:
  2101 ;;		line 148 in file "main.c"
  2102 ;; Parameters:    Size  Location     Type
  2103 ;;  key             1    wreg     unsigned char 
  2104 ;; Auto vars:     Size  Location     Type
  2105 ;;  key             1    4[BANK0 ] unsigned char 
  2106 ;; Return value:  Size  Location     Type
  2107 ;;                  1    wreg      void 
  2108 ;; Registers used:
  2109 ;;		wreg, fsr0l, fsr0h, status,2, status,0, btemp+1, pclath, cstack
  2110 ;; Tracked objects:
  2111 ;;		On entry : 0/0
  2112 ;;		On exit  : 0/0
  2113 ;;		Unchanged: 0/0
  2114 ;; Data sizes:     COMMON   BANK0   BANK1   BANK3   BANK2
  2115 ;;      Params:         0       0       0       0       0
  2116 ;;      Locals:         0       1       0       0       0
  2117 ;;      Temps:          0       2       0       0       0
  2118 ;;      Totals:         0       3       0       0       0
  2119 ;;Total ram usage:        3 bytes
  2120 ;; Hardware stack levels used: 1
  2121 ;; Hardware stack levels required when called: 3
  2122 ;; This function calls:
  2123 ;;		_clcd_clear
  2124 ;;		_clcd_print
  2125 ;;		_clcd_putch
  2126 ;; This function is called by:
  2127 ;;		_main
  2128 ;; This function uses a non-reentrant model
  2129 ;;
  2130                           
  2131     0C22                     _washing_program_display:	
  2132                           ;psect for function _washing_program_display
  2133                           
  2134                           
  2135                           ;incstack = 0
  2136                           ; Regs used in _washing_program_display: [wreg-fsr0h+status,2+status,0+btemp+1+pclath+cs
      +                          tack]
  2137                           ;washing_program_display@key stored from wreg
  2138     0C22  1283               	bcf	3,5	;RP0=0, select bank0
  2139     0C23  1303               	bcf	3,6	;RP1=0, select bank0
  2140     0C24  00A4               	movwf	washing_program_display@key
  2141     0C25                     l2914:
  2142                           
  2143                           ;main.c: 148:          };main.c: 149:      };main.c: 150:      clcd_print("washing Progr
      +                          am", (0x80 + 0));
  2144     0C25  3010               	movlw	16
  2145     0C26  0665               	xorwf	_reset_mode,w
  2146     0C27  1D03               	btfss	3,2
  2147     0C28  2C2A               	goto	u3321
  2148     0C29  2C2B               	goto	u3320
  2149     0C2A                     u3321:
  2150     0C2A  2C31               	goto	l2920
  2151     0C2B                     u3320:
  2152     0C2B                     l2916:
  2153                           
  2154                           ;main.c: 151:      clcd_putch('*', (0xC0 + 0));;main.c: 153: 
  2155     0C2B  160A  118A  270C  120A  158A  	fcall	_clcd_clear
  2156     0C30                     l2918:
  2157                           
  2158                           ;main.c: 154:      if(program_no <= 9)
  2159     0C30  01FB               	clrf	_program_no
  2160     0C31                     l2920:
  2161                           
  2162                           ;main.c: 158:         clcd_print(washing_prog[program_no + 2], (0xD0 + 2));
  2163     0C31  3037               	movlw	55
  2164     0C32  1283               	bcf	3,5	;RP0=0, select bank0
  2165     0C33  1303               	bcf	3,6	;RP1=0, select bank0
  2166     0C34  0624               	xorwf	washing_program_display@key,w
  2167     0C35  1D03               	btfss	3,2
  2168     0C36  2C38               	goto	u3331
  2169     0C37  2C39               	goto	u3330
  2170     0C38                     u3331:
  2171     0C38  2C49               	goto	l2930
  2172     0C39                     u3330:
  2173     0C39                     l2922:
  2174                           
  2175                           ;main.c: 159:      };main.c: 160:      else if(program_no == 10)
  2176     0C39  160A  118A  270C  120A  158A  	fcall	_clcd_clear
  2177     0C3E                     l2924:
  2178                           
  2179                           ;main.c: 161:      {
  2180     0C3E  3001               	movlw	1
  2181     0C3F  00FF               	movwf	btemp+1
  2182     0C40  087F               	movf	btemp+1,w
  2183     0C41  07FB               	addwf	_program_no,f
  2184     0C42                     l2926:
  2185                           
  2186                           ;main.c: 162:         clcd_print(washing_prog[program_no] , (0xC0 + 2));
  2187     0C42  300C               	movlw	12
  2188     0C43  067B               	xorwf	_program_no,w
  2189     0C44  1D03               	btfss	3,2
  2190     0C45  2C47               	goto	u3341
  2191     0C46  2C48               	goto	u3340
  2192     0C47                     u3341:
  2193     0C47  2C49               	goto	l2930
  2194     0C48                     u3340:
  2195     0C48                     l2928:
  2196                           
  2197                           ;main.c: 163:         clcd_print(washing_prog[program_no + 1], (0x90 + 2));;main.c: 164:
      +                                   clcd_print(washing_prog[0] , (0xD0 + 2));
  2198     0C48  01FB               	clrf	_program_no
  2199     0C49                     l2930:
  2200                           
  2201                           ;main.c: 167:      {
  2202     0C49  3031               	movlw	low (STR_26| (0+32768))
  2203     0C4A  00F6               	movwf	clcd_print@str
  2204     0C4B  3087               	movlw	high (STR_26| (0+32768))
  2205     0C4C  00F7               	movwf	clcd_print@str+1
  2206     0C4D  3080               	movlw	128
  2207     0C4E  00F8               	movwf	clcd_print@addr
  2208     0C4F  160A  118A  27D1  120A  158A  	fcall	_clcd_print
  2209     0C54                     l2932:
  2210                           
  2211                           ;main.c: 168:         clcd_print(washing_prog[program_no] , (0xC0 + 2));
  2212     0C54  30C0               	movlw	192
  2213     0C55  1283               	bcf	3,5	;RP0=0, select bank0
  2214     0C56  1303               	bcf	3,6	;RP1=0, select bank0
  2215     0C57  00A0               	movwf	clcd_putch@addr
  2216     0C58  302A               	movlw	42
  2217     0C59  160A  118A  272C  120A  158A  	fcall	_clcd_putch
  2218     0C5E                     l2934:
  2219                           
  2220                           ;main.c: 171:      }
  2221     0C5E  300A               	movlw	10
  2222     0C5F  027B               	subwf	_program_no,w
  2223     0C60  1803               	skipnc
  2224     0C61  2C63               	goto	u3351
  2225     0C62  2C64               	goto	u3350
  2226     0C63                     u3351:
  2227     0C63  2CA4               	goto	l2938
  2228     0C64                     u3350:
  2229     0C64                     l2936:
  2230                           
  2231                           ;main.c: 172:  };main.c: 173: 
  2232     0C64  087B               	movf	_program_no,w
  2233     0C65  1283               	bcf	3,5	;RP0=0, select bank0
  2234     0C66  1303               	bcf	3,6	;RP1=0, select bank0
  2235     0C67  00A2               	movwf	??_washing_program_display
  2236     0C68  0722               	addwf	??_washing_program_display,w
  2237     0C69  3EA0               	addlw	(low (_washing_prog| 0))& (0+255)
  2238     0C6A  0084               	movwf	4
  2239     0C6B  1383               	bcf	3,7	;select IRP bank1
  2240     0C6C  0800               	movf	0,w
  2241     0C6D  00F6               	movwf	clcd_print@str
  2242     0C6E  0A84               	incf	4,f
  2243     0C6F  0800               	movf	0,w
  2244     0C70  0384               	decf	4,f
  2245     0C71  00F7               	movwf	clcd_print@str+1
  2246     0C72  30C2               	movlw	194
  2247     0C73  00F8               	movwf	clcd_print@addr
  2248     0C74  160A  118A  27D1  120A  158A  	fcall	_clcd_print
  2249                           
  2250                           ;main.c: 174: void water_level_display(unsigned char key)
  2251     0C79  087B               	movf	_program_no,w
  2252     0C7A  1283               	bcf	3,5	;RP0=0, select bank0
  2253     0C7B  1303               	bcf	3,6	;RP1=0, select bank0
  2254     0C7C  00A2               	movwf	??_washing_program_display
  2255     0C7D  0722               	addwf	??_washing_program_display,w
  2256     0C7E  3EA2               	addlw	(low ((_washing_prog| 0+2)))& (0+255)
  2257     0C7F  0084               	movwf	4
  2258     0C80  1383               	bcf	3,7	;select IRP bank1
  2259     0C81  0800               	movf	0,w
  2260     0C82  00F6               	movwf	clcd_print@str
  2261     0C83  0A84               	incf	4,f
  2262     0C84  0800               	movf	0,w
  2263     0C85  0384               	decf	4,f
  2264     0C86  00F7               	movwf	clcd_print@str+1
  2265     0C87  3092               	movlw	146
  2266     0C88  00F8               	movwf	clcd_print@addr
  2267     0C89  160A  118A  27D1  120A  158A  	fcall	_clcd_print
  2268                           
  2269                           ;main.c: 175: {
  2270     0C8E  087B               	movf	_program_no,w
  2271     0C8F  1283               	bcf	3,5	;RP0=0, select bank0
  2272     0C90  1303               	bcf	3,6	;RP1=0, select bank0
  2273     0C91  00A2               	movwf	??_washing_program_display
  2274     0C92  0722               	addwf	??_washing_program_display,w
  2275     0C93  3EA4               	addlw	(low ((_washing_prog| 0+4)))& (0+255)
  2276     0C94  0084               	movwf	4
  2277     0C95  1383               	bcf	3,7	;select IRP bank1
  2278     0C96  0800               	movf	0,w
  2279     0C97  00F6               	movwf	clcd_print@str
  2280     0C98  0A84               	incf	4,f
  2281     0C99  0800               	movf	0,w
  2282     0C9A  0384               	decf	4,f
  2283     0C9B  00F7               	movwf	clcd_print@str+1
  2284     0C9C  30D2               	movlw	210
  2285     0C9D  00F8               	movwf	clcd_print@addr
  2286     0C9E  160A  118A  27D1  120A  158A  	fcall	_clcd_print
  2287                           
  2288                           ;main.c: 176:     if(reset_mode == 0x11)
  2289     0CA3  2D17               	goto	l114
  2290     0CA4                     l2938:
  2291     0CA4  300A               	movlw	10
  2292     0CA5  067B               	xorwf	_program_no,w
  2293     0CA6  1D03               	btfss	3,2
  2294     0CA7  2CA9               	goto	u3361
  2295     0CA8  2CAA               	goto	u3360
  2296     0CA9                     u3361:
  2297     0CA9  2CE2               	goto	l2942
  2298     0CAA                     u3360:
  2299     0CAA                     l2940:
  2300                           
  2301                           ;main.c: 178:         water_level_index = 0;;main.c: 179:         clcd_clear();
  2302     0CAA  087B               	movf	_program_no,w
  2303     0CAB  1283               	bcf	3,5	;RP0=0, select bank0
  2304     0CAC  1303               	bcf	3,6	;RP1=0, select bank0
  2305     0CAD  00A2               	movwf	??_washing_program_display
  2306     0CAE  0722               	addwf	??_washing_program_display,w
  2307     0CAF  3EA0               	addlw	(low (_washing_prog| 0))& (0+255)
  2308     0CB0  0084               	movwf	4
  2309     0CB1  1383               	bcf	3,7	;select IRP bank1
  2310     0CB2  0800               	movf	0,w
  2311     0CB3  00F6               	movwf	clcd_print@str
  2312     0CB4  0A84               	incf	4,f
  2313     0CB5  0800               	movf	0,w
  2314     0CB6  0384               	decf	4,f
  2315     0CB7  00F7               	movwf	clcd_print@str+1
  2316     0CB8  30C2               	movlw	194
  2317     0CB9  00F8               	movwf	clcd_print@addr
  2318     0CBA  160A  118A  27D1  120A  158A  	fcall	_clcd_print
  2319                           
  2320                           ;main.c: 180: 
  2321     0CBF  087B               	movf	_program_no,w
  2322     0CC0  1283               	bcf	3,5	;RP0=0, select bank0
  2323     0CC1  1303               	bcf	3,6	;RP1=0, select bank0
  2324     0CC2  00A2               	movwf	??_washing_program_display
  2325     0CC3  0722               	addwf	??_washing_program_display,w
  2326     0CC4  3EA2               	addlw	(low ((_washing_prog| 0+2)))& (0+255)
  2327     0CC5  0084               	movwf	4
  2328     0CC6  1383               	bcf	3,7	;select IRP bank1
  2329     0CC7  0800               	movf	0,w
  2330     0CC8  00F6               	movwf	clcd_print@str
  2331     0CC9  0A84               	incf	4,f
  2332     0CCA  0800               	movf	0,w
  2333     0CCB  0384               	decf	4,f
  2334     0CCC  00F7               	movwf	clcd_print@str+1
  2335     0CCD  3092               	movlw	146
  2336     0CCE  00F8               	movwf	clcd_print@addr
  2337     0CCF  160A  118A  27D1  120A  158A  	fcall	_clcd_print
  2338                           
  2339                           ;main.c: 181:     }
  2340     0CD4  1683               	bsf	3,5	;RP0=1, select bank1
  2341     0CD5  1303               	bcf	3,6	;RP1=0, select bank1
  2342     0CD6  0820               	movf	_washing_prog^(0+128),w
  2343     0CD7  00F6               	movwf	clcd_print@str
  2344     0CD8  0821               	movf	(_washing_prog+1)^(0+128),w
  2345     0CD9  00F7               	movwf	clcd_print@str+1
  2346     0CDA  30D2               	movlw	210
  2347     0CDB  00F8               	movwf	clcd_print@addr
  2348     0CDC  160A  118A  27D1  120A  158A  	fcall	_clcd_print
  2349                           
  2350                           ;main.c: 182: 
  2351     0CE1  2D17               	goto	l114
  2352     0CE2                     l2942:
  2353     0CE2  300B               	movlw	11
  2354     0CE3  067B               	xorwf	_program_no,w
  2355     0CE4  1D03               	btfss	3,2
  2356     0CE5  2CE7               	goto	u3371
  2357     0CE6  2CE8               	goto	u3370
  2358     0CE7                     u3371:
  2359     0CE7  2D17               	goto	l114
  2360     0CE8                     u3370:
  2361     0CE8                     l2944:
  2362                           
  2363                           ;main.c: 184:     {;main.c: 185:         water_level_index++;
  2364     0CE8  087B               	movf	_program_no,w
  2365     0CE9  1283               	bcf	3,5	;RP0=0, select bank0
  2366     0CEA  1303               	bcf	3,6	;RP1=0, select bank0
  2367     0CEB  00A2               	movwf	??_washing_program_display
  2368     0CEC  0722               	addwf	??_washing_program_display,w
  2369     0CED  3EA0               	addlw	(low (_washing_prog| 0))& (0+255)
  2370     0CEE  0084               	movwf	4
  2371     0CEF  1383               	bcf	3,7	;select IRP bank1
  2372     0CF0  0800               	movf	0,w
  2373     0CF1  00F6               	movwf	clcd_print@str
  2374     0CF2  0A84               	incf	4,f
  2375     0CF3  0800               	movf	0,w
  2376     0CF4  0384               	decf	4,f
  2377     0CF5  00F7               	movwf	clcd_print@str+1
  2378     0CF6  30C2               	movlw	194
  2379     0CF7  00F8               	movwf	clcd_print@addr
  2380     0CF8  160A  118A  27D1  120A  158A  	fcall	_clcd_print
  2381                           
  2382                           ;main.c: 186: 
  2383     0CFD  1683               	bsf	3,5	;RP0=1, select bank1
  2384     0CFE  1303               	bcf	3,6	;RP1=0, select bank1
  2385     0CFF  0820               	movf	_washing_prog^(0+128),w
  2386     0D00  00F6               	movwf	clcd_print@str
  2387     0D01  0821               	movf	(_washing_prog+1)^(0+128),w
  2388     0D02  00F7               	movwf	clcd_print@str+1
  2389     0D03  3092               	movlw	146
  2390     0D04  00F8               	movwf	clcd_print@addr
  2391     0D05  160A  118A  27D1  120A  158A  	fcall	_clcd_print
  2392                           
  2393                           ;main.c: 187:         if(water_level_index ==5)
  2394     0D0A  1683               	bsf	3,5	;RP0=1, select bank1
  2395     0D0B  1303               	bcf	3,6	;RP1=0, select bank1
  2396     0D0C  0822               	movf	(low ((_washing_prog| 0+2)))^(0+128),w
  2397     0D0D  00F6               	movwf	clcd_print@str
  2398     0D0E  0823               	movf	((low ((_washing_prog| 0+2))+1))^(0+128),w
  2399     0D0F  00F7               	movwf	clcd_print@str+1
  2400     0D10  30D2               	movlw	210
  2401     0D11  00F8               	movwf	clcd_print@addr
  2402     0D12  160A  118A  27D1  120A  158A  	fcall	_clcd_print
  2403     0D17                     l114:
  2404     0D17  0008               	return
  2405     0D18                     __end_of_washing_program_display:
  2406                           
  2407                           	psect	text3
  2408     0037                     __ptext3:	
  2409 ;; *************** function _run_program *****************
  2410 ;; Defined at:
  2411 ;;		line 396 in file "main.c"
  2412 ;; Parameters:    Size  Location     Type
  2413 ;;  key             1    wreg     unsigned char 
  2414 ;; Auto vars:     Size  Location     Type
  2415 ;;  key             1   48[BANK0 ] unsigned char 
  2416 ;;  wait            2   49[BANK0 ] unsigned int 
  2417 ;; Return value:  Size  Location     Type
  2418 ;;                  1    wreg      void 
  2419 ;; Registers used:
  2420 ;;		wreg, fsr0l, fsr0h, status,2, status,0, btemp+1, pclath, cstack
  2421 ;; Tracked objects:
  2422 ;;		On entry : 0/0
  2423 ;;		On exit  : 0/0
  2424 ;;		Unchanged: 0/0
  2425 ;; Data sizes:     COMMON   BANK0   BANK1   BANK3   BANK2
  2426 ;;      Params:         0       0       0       0       0
  2427 ;;      Locals:         0       3       0       0       0
  2428 ;;      Temps:          0       6       0       0       0
  2429 ;;      Totals:         0       9       0       0       0
  2430 ;;Total ram usage:        9 bytes
  2431 ;; Hardware stack levels used: 1
  2432 ;; Hardware stack levels required when called: 4
  2433 ;; This function calls:
  2434 ;;		___awdiv
  2435 ;;		___awmod
  2436 ;;		___flmul
  2437 ;;		___fltol
  2438 ;;		___wmul
  2439 ;;		___xxtofl
  2440 ;;		_clcd_clear
  2441 ;;		_clcd_print
  2442 ;;		_clcd_putch
  2443 ;;		_door_status_check
  2444 ;;		_set_timer
  2445 ;; This function is called by:
  2446 ;;		_main
  2447 ;; This function uses a non-reentrant model
  2448 ;;
  2449                           
  2450     0037                     _run_program:	
  2451                           ;psect for function _run_program
  2452                           
  2453                           
  2454                           ;incstack = 0
  2455                           ; Regs used in _run_program: [wreg-fsr0h+status,2+status,0+btemp+1+pclath+cstack]
  2456                           ;run_program@key stored from wreg
  2457     0037  1283               	bcf	3,5	;RP0=0, select bank0
  2458     0038  1303               	bcf	3,6	;RP1=0, select bank0
  2459     0039  00D0               	movwf	run_program@key
  2460     003A                     l2978:
  2461                           
  2462                           ;main.c: 396:         clcd_print("(MM:SS)" , (0x90 + 5));;main.c: 397: ;main.c: 398:    
      +                               _delay((unsigned long)((2000)*(20000000/4000.0)));
  2463     003A  120A  158A  2120  120A  118A  	fcall	_door_status_check
  2464     003F                     l2980:
  2465                           
  2466                           ;main.c: 399: ;main.c: 400:         clcd_clear();
  2467     003F  3012               	movlw	18
  2468     0040  1283               	bcf	3,5	;RP0=0, select bank0
  2469     0041  1303               	bcf	3,6	;RP1=0, select bank0
  2470     0042  0665               	xorwf	_reset_mode,w
  2471     0043  1D03               	btfss	3,2
  2472     0044  2846               	goto	u3441
  2473     0045  2847               	goto	u3440
  2474     0046                     u3441:
  2475     0046  29E0               	goto	l3022
  2476     0047                     u3440:
  2477     0047                     l2982:
  2478                           
  2479                           ;main.c: 401:         clcd_print("Function - ", (0x80 + 0));;main.c: 402:         clcd_p
      +                          rint("TIME: ", (0xC0 + 0));
  2480     0047  120A  158A  2706  120A  118A  	fcall	_set_timer
  2481     004C                     l2984:
  2482                           
  2483                           ;main.c: 403:         clcd_print("5-START  6-PAUSE", (0xD0 + 0));
  2484     004C  160A  118A  270C  120A  118A  	fcall	_clcd_clear
  2485     0051                     l2986:
  2486                           
  2487                           ;main.c: 404: 
  2488     0051  3038               	movlw	low (STR_28| (0+32768))
  2489     0052  00F6               	movwf	clcd_print@str
  2490     0053  3088               	movlw	high (STR_28| (0+32768))
  2491     0054  00F7               	movwf	clcd_print@str+1
  2492     0055  3080               	movlw	128
  2493     0056  00F8               	movwf	clcd_print@addr
  2494     0057  160A  118A  27D1  120A  118A  	fcall	_clcd_print
  2495     005C                     l2988:
  2496                           
  2497                           ;main.c: 405:         time = total_time = (min * 60) + sec;
  2498     005C  087B               	movf	_program_no,w
  2499     005D  1283               	bcf	3,5	;RP0=0, select bank0
  2500     005E  1303               	bcf	3,6	;RP1=0, select bank0
  2501     005F  00CA               	movwf	??_run_program
  2502     0060  074A               	addwf	??_run_program,w
  2503     0061  3EA0               	addlw	(low (_washing_prog| 0))& (0+255)
  2504     0062  0084               	movwf	4
  2505     0063  1383               	bcf	3,7	;select IRP bank1
  2506     0064  0800               	movf	0,w
  2507     0065  00F6               	movwf	clcd_print@str
  2508     0066  0A84               	incf	4,f
  2509     0067  0800               	movf	0,w
  2510     0068  0384               	decf	4,f
  2511     0069  00F7               	movwf	clcd_print@str+1
  2512     006A  3086               	movlw	134
  2513     006B  00F8               	movwf	clcd_print@addr
  2514     006C  160A  118A  27D1  120A  118A  	fcall	_clcd_print
  2515     0071                     l2990:
  2516                           
  2517                           ;main.c: 406:         wash_time = (int)total_time * 0.46;
  2518     0071  3031               	movlw	low (STR_29| (0+32768))
  2519     0072  00F6               	movwf	clcd_print@str
  2520     0073  3088               	movlw	high (STR_29| (0+32768))
  2521     0074  00F7               	movwf	clcd_print@str+1
  2522     0075  30C0               	movlw	192
  2523     0076  00F8               	movwf	clcd_print@addr
  2524     0077  160A  118A  27D1  120A  118A  	fcall	_clcd_print
  2525                           
  2526                           ;main.c: 408:         spin_time = total_time - wash_time - rinse_time;
  2527     007C  30C6               	movlw	198
  2528     007D  1283               	bcf	3,5	;RP0=0, select bank0
  2529     007E  1303               	bcf	3,6	;RP1=0, select bank0
  2530     007F  00A0               	movwf	clcd_putch@addr
  2531     0080  300A               	movlw	10
  2532     0081  00F2               	movwf	___awdiv@divisor
  2533     0082  3000               	movlw	0
  2534     0083  00F3               	movwf	___awdiv@divisor+1
  2535     0084  0864               	movf	_min,w
  2536     0085  00CA               	movwf	??_run_program
  2537     0086  01CB               	clrf	??_run_program+1
  2538     0087  084A               	movf	??_run_program,w
  2539     0088  00F4               	movwf	___awdiv@dividend
  2540     0089  084B               	movf	??_run_program+1,w
  2541     008A  00F5               	movwf	___awdiv@dividend+1
  2542     008B  120A  158A  2289  120A  118A  	fcall	___awdiv
  2543     0090  0872               	movf	?___awdiv,w
  2544     0091  3E30               	addlw	48
  2545     0092  160A  118A  272C  120A  118A  	fcall	_clcd_putch
  2546                           
  2547                           ;main.c: 409: 
  2548     0097  30C7               	movlw	199
  2549     0098  1283               	bcf	3,5	;RP0=0, select bank0
  2550     0099  1303               	bcf	3,6	;RP1=0, select bank0
  2551     009A  00A0               	movwf	clcd_putch@addr
  2552     009B  300A               	movlw	10
  2553     009C  00F2               	movwf	___awmod@divisor
  2554     009D  3000               	movlw	0
  2555     009E  00F3               	movwf	___awmod@divisor+1
  2556     009F  0864               	movf	_min,w
  2557     00A0  00CA               	movwf	??_run_program
  2558     00A1  01CB               	clrf	??_run_program+1
  2559     00A2  084A               	movf	??_run_program,w
  2560     00A3  00F4               	movwf	___awmod@dividend
  2561     00A4  084B               	movf	??_run_program+1,w
  2562     00A5  00F5               	movwf	___awmod@dividend+1
  2563     00A6  120A  158A  2176  120A  118A  	fcall	___awmod
  2564     00AB  0872               	movf	?___awmod,w
  2565     00AC  3E30               	addlw	48
  2566     00AD  160A  118A  272C  120A  118A  	fcall	_clcd_putch
  2567     00B2                     l2992:
  2568                           
  2569                           ;main.c: 410: 
  2570     00B2  30C8               	movlw	200
  2571     00B3  1283               	bcf	3,5	;RP0=0, select bank0
  2572     00B4  1303               	bcf	3,6	;RP1=0, select bank0
  2573     00B5  00A0               	movwf	clcd_putch@addr
  2574     00B6  303A               	movlw	58
  2575     00B7  160A  118A  272C  120A  118A  	fcall	_clcd_putch
  2576     00BC                     l2994:
  2577                           
  2578                           ;main.c: 411:         RC2 = 1;
  2579     00BC  30C9               	movlw	201
  2580     00BD  1283               	bcf	3,5	;RP0=0, select bank0
  2581     00BE  1303               	bcf	3,6	;RP1=0, select bank0
  2582     00BF  00A0               	movwf	clcd_putch@addr
  2583     00C0  300A               	movlw	10
  2584     00C1  00F2               	movwf	___awdiv@divisor
  2585     00C2  3000               	movlw	0
  2586     00C3  00F3               	movwf	___awdiv@divisor+1
  2587     00C4  0863               	movf	_sec,w
  2588     00C5  00CA               	movwf	??_run_program
  2589     00C6  01CB               	clrf	??_run_program+1
  2590     00C7  084A               	movf	??_run_program,w
  2591     00C8  00F4               	movwf	___awdiv@dividend
  2592     00C9  084B               	movf	??_run_program+1,w
  2593     00CA  00F5               	movwf	___awdiv@dividend+1
  2594     00CB  120A  158A  2289  120A  118A  	fcall	___awdiv
  2595     00D0  0872               	movf	?___awdiv,w
  2596     00D1  3E30               	addlw	48
  2597     00D2  160A  118A  272C  120A  118A  	fcall	_clcd_putch
  2598     00D7                     l2996:
  2599                           
  2600                           ;main.c: 412: 
  2601     00D7  30CA               	movlw	202
  2602     00D8  1283               	bcf	3,5	;RP0=0, select bank0
  2603     00D9  1303               	bcf	3,6	;RP1=0, select bank0
  2604     00DA  00A0               	movwf	clcd_putch@addr
  2605     00DB  300A               	movlw	10
  2606     00DC  00F2               	movwf	___awdiv@divisor
  2607     00DD  3000               	movlw	0
  2608     00DE  00F3               	movwf	___awdiv@divisor+1
  2609     00DF  0863               	movf	_sec,w
  2610     00E0  00CA               	movwf	??_run_program
  2611     00E1  01CB               	clrf	??_run_program+1
  2612     00E2  084A               	movf	??_run_program,w
  2613     00E3  00F4               	movwf	___awdiv@dividend
  2614     00E4  084B               	movf	??_run_program+1,w
  2615     00E5  00F5               	movwf	___awdiv@dividend+1
  2616     00E6  120A  158A  2289  120A  118A  	fcall	___awdiv
  2617     00EB  0872               	movf	?___awdiv,w
  2618     00EC  3E30               	addlw	48
  2619     00ED  160A  118A  272C  120A  118A  	fcall	_clcd_putch
  2620     00F2                     l2998:
  2621                           
  2622                           ;main.c: 413:         TMR2ON = 1;
  2623     00F2  301A               	movlw	low (STR_30| (0+32768))
  2624     00F3  00F6               	movwf	clcd_print@str
  2625     00F4  3088               	movlw	high (STR_30| (0+32768))
  2626     00F5  00F7               	movwf	clcd_print@str+1
  2627     00F6  3095               	movlw	149
  2628     00F7  00F8               	movwf	clcd_print@addr
  2629     00F8  160A  118A  27D1  120A  118A  	fcall	_clcd_print
  2630     00FD                     l3000:
  2631                           
  2632                           ;main.c: 415: 
  2633     00FD  3033               	movlw	51
  2634     00FE  1283               	bcf	3,5	;RP0=0, select bank0
  2635     00FF  1303               	bcf	3,6	;RP1=0, select bank0
  2636     0100  00CC               	movwf	??_run_program+2
  2637     0101  30BB               	movlw	187
  2638     0102  00CB               	movwf	??_run_program+1
  2639     0103  30DF               	movlw	223
  2640     0104  00CA               	movwf	??_run_program
  2641     0105                     u3657:
  2642     0105  0BCA               	decfsz	??_run_program,f
  2643     0106  2905               	goto	u3657
  2644     0107  0BCB               	decfsz	??_run_program+1,f
  2645     0108  2905               	goto	u3657
  2646     0109  0BCC               	decfsz	??_run_program+2,f
  2647     010A  2905               	goto	u3657
  2648     010B                     l3002:
  2649                           
  2650                           ;main.c: 417:     {
  2651     010B  160A  118A  270C  120A  118A  	fcall	_clcd_clear
  2652     0110                     l3004:
  2653                           
  2654                           ;main.c: 418:         RC2 = 0;
  2655     0110  3086               	movlw	low (STR_31| (0+32768))
  2656     0111  00F6               	movwf	clcd_print@str
  2657     0112  3087               	movlw	high (STR_31| (0+32768))
  2658     0113  00F7               	movwf	clcd_print@str+1
  2659     0114  3080               	movlw	128
  2660     0115  00F8               	movwf	clcd_print@addr
  2661     0116  160A  118A  27D1  120A  118A  	fcall	_clcd_print
  2662     011B                     l3006:
  2663                           
  2664                           ;main.c: 419:         TMR2ON = 0;
  2665     011B  302A               	movlw	low (STR_32| (0+32768))
  2666     011C  00F6               	movwf	clcd_print@str
  2667     011D  3088               	movlw	high (STR_32| (0+32768))
  2668     011E  00F7               	movwf	clcd_print@str+1
  2669     011F  30C0               	movlw	192
  2670     0120  00F8               	movwf	clcd_print@addr
  2671     0121  160A  118A  27D1  120A  118A  	fcall	_clcd_print
  2672     0126                     l3008:
  2673                           
  2674                           ;main.c: 420:         operation_mode = 0x05;
  2675     0126  3000               	movlw	low (STR_33| (0+32768))
  2676     0127  00F6               	movwf	clcd_print@str
  2677     0128  3087               	movlw	high (STR_33| (0+32768))
  2678     0129  00F7               	movwf	clcd_print@str+1
  2679     012A  30D0               	movlw	208
  2680     012B  00F8               	movwf	clcd_print@addr
  2681     012C  160A  118A  27D1  120A  118A  	fcall	_clcd_print
  2682     0131                     l3010:
  2683                           
  2684                           ;main.c: 422:     }
  2685     0131  1283               	bcf	3,5	;RP0=0, select bank0
  2686     0132  1303               	bcf	3,6	;RP1=0, select bank0
  2687     0133  0864               	movf	_min,w
  2688     0134  00CA               	movwf	??_run_program
  2689     0135  01CB               	clrf	??_run_program+1
  2690     0136  084A               	movf	??_run_program,w
  2691     0137  00F2               	movwf	___wmul@multiplier
  2692     0138  084B               	movf	??_run_program+1,w
  2693     0139  00F3               	movwf	___wmul@multiplier+1
  2694     013A  303C               	movlw	60
  2695     013B  00F4               	movwf	___wmul@multiplicand
  2696     013C  3000               	movlw	0
  2697     013D  00F5               	movwf	___wmul@multiplicand+1
  2698     013E  160A  118A  2783  120A  118A  	fcall	___wmul
  2699     0143  1283               	bcf	3,5	;RP0=0, select bank0
  2700     0144  1303               	bcf	3,6	;RP1=0, select bank0
  2701     0145  0863               	movf	_sec,w
  2702     0146  0772               	addwf	?___wmul,w
  2703     0147  00D8               	movwf	run_program@total_time
  2704     0148  3000               	movlw	0
  2705     0149  1803               	skipnc
  2706     014A  3001               	movlw	1
  2707     014B  0773               	addwf	?___wmul+1,w
  2708     014C  00D9               	movwf	run_program@total_time+1
  2709     014D  0859               	movf	run_program@total_time+1,w
  2710     014E  00E7               	movwf	run_program@time+1
  2711     014F  0858               	movf	run_program@total_time,w
  2712     0150  00E6               	movwf	run_program@time
  2713     0151                     l3012:
  2714                           
  2715                           ;main.c: 423:     total_time = (min * 60) + sec;
  2716     0151  0858               	movf	run_program@total_time,w
  2717     0152  00F2               	movwf	___xxtofl@val
  2718     0153  0859               	movf	run_program@total_time+1,w
  2719     0154  00F3               	movwf	___xxtofl@val+1
  2720     0155  3000               	movlw	0
  2721     0156  1BF3               	btfsc	___xxtofl@val+1,7
  2722     0157  30FF               	movlw	255
  2723     0158  00F4               	movwf	___xxtofl@val+2
  2724     0159  00F5               	movwf	___xxtofl@val+3
  2725     015A  3001               	movlw	1
  2726     015B  120A  158A  2368  120A  118A  	fcall	___xxtofl
  2727     0160  0875               	movf	?___xxtofl+3,w
  2728     0161  1283               	bcf	3,5	;RP0=0, select bank0
  2729     0162  1303               	bcf	3,6	;RP1=0, select bank0
  2730     0163  00AD               	movwf	___flmul@a+3
  2731     0164  0874               	movf	?___xxtofl+2,w
  2732     0165  00AC               	movwf	___flmul@a+2
  2733     0166  0873               	movf	?___xxtofl+1,w
  2734     0167  00AB               	movwf	___flmul@a+1
  2735     0168  0872               	movf	?___xxtofl,w
  2736     0169  00AA               	movwf	___flmul@a
  2737     016A  303E               	movlw	62
  2738     016B  00A9               	movwf	___flmul@b+3
  2739     016C  30EB               	movlw	235
  2740     016D  00A8               	movwf	___flmul@b+2
  2741     016E  3085               	movlw	133
  2742     016F  00A7               	movwf	___flmul@b+1
  2743     0170  301F               	movlw	31
  2744     0171  00A6               	movwf	___flmul@b
  2745     0172  120A  118A  23B7  120A  118A  	fcall	___flmul
  2746     0177  1283               	bcf	3,5	;RP0=0, select bank0
  2747     0178  1303               	bcf	3,6	;RP1=0, select bank0
  2748     0179  0829               	movf	?___flmul+3,w
  2749     017A  00C3               	movwf	___fltol@f1+3
  2750     017B  0828               	movf	?___flmul+2,w
  2751     017C  00C2               	movwf	___fltol@f1+2
  2752     017D  0827               	movf	?___flmul+1,w
  2753     017E  00C1               	movwf	___fltol@f1+1
  2754     017F  0826               	movf	?___flmul,w
  2755     0180  00C0               	movwf	___fltol@f1
  2756     0181  120A  158A  22F0  120A  118A  	fcall	___fltol
  2757     0186  1283               	bcf	3,5	;RP0=0, select bank0
  2758     0187  1303               	bcf	3,6	;RP1=0, select bank0
  2759     0188  0841               	movf	?___fltol+1,w
  2760     0189  00DD               	movwf	_wash_time+1
  2761     018A  0840               	movf	?___fltol,w
  2762     018B  00DC               	movwf	_wash_time
  2763     018C                     l3014:
  2764                           
  2765                           ;main.c: 424:     if(program_no <= 7)
  2766     018C  0858               	movf	run_program@total_time,w
  2767     018D  00F2               	movwf	___xxtofl@val
  2768     018E  0859               	movf	run_program@total_time+1,w
  2769     018F  00F3               	movwf	___xxtofl@val+1
  2770     0190  3000               	movlw	0
  2771     0191  1BF3               	btfsc	___xxtofl@val+1,7
  2772     0192  30FF               	movlw	255
  2773     0193  00F4               	movwf	___xxtofl@val+2
  2774     0194  00F5               	movwf	___xxtofl@val+3
  2775     0195  3001               	movlw	1
  2776     0196  120A  158A  2368  120A  118A  	fcall	___xxtofl
  2777     019B  0875               	movf	?___xxtofl+3,w
  2778     019C  1283               	bcf	3,5	;RP0=0, select bank0
  2779     019D  1303               	bcf	3,6	;RP1=0, select bank0
  2780     019E  00AD               	movwf	___flmul@a+3
  2781     019F  0874               	movf	?___xxtofl+2,w
  2782     01A0  00AC               	movwf	___flmul@a+2
  2783     01A1  0873               	movf	?___xxtofl+1,w
  2784     01A2  00AB               	movwf	___flmul@a+1
  2785     01A3  0872               	movf	?___xxtofl,w
  2786     01A4  00AA               	movwf	___flmul@a
  2787     01A5  303D               	movlw	61
  2788     01A6  00A9               	movwf	___flmul@b+3
  2789     01A7  30F5               	movlw	245
  2790     01A8  00A8               	movwf	___flmul@b+2
  2791     01A9  30C2               	movlw	194
  2792     01AA  00A7               	movwf	___flmul@b+1
  2793     01AB  308F               	movlw	143
  2794     01AC  00A6               	movwf	___flmul@b
  2795     01AD  120A  118A  23B7  120A  118A  	fcall	___flmul
  2796     01B2  1283               	bcf	3,5	;RP0=0, select bank0
  2797     01B3  1303               	bcf	3,6	;RP1=0, select bank0
  2798     01B4  0829               	movf	?___flmul+3,w
  2799     01B5  00C3               	movwf	___fltol@f1+3
  2800     01B6  0828               	movf	?___flmul+2,w
  2801     01B7  00C2               	movwf	___fltol@f1+2
  2802     01B8  0827               	movf	?___flmul+1,w
  2803     01B9  00C1               	movwf	___fltol@f1+1
  2804     01BA  0826               	movf	?___flmul,w
  2805     01BB  00C0               	movwf	___fltol@f1
  2806     01BC  120A  158A  22F0  120A  118A  	fcall	___fltol
  2807     01C1  1283               	bcf	3,5	;RP0=0, select bank0
  2808     01C2  1303               	bcf	3,6	;RP1=0, select bank0
  2809     01C3  0841               	movf	?___fltol+1,w
  2810     01C4  00DF               	movwf	_rinse_time+1
  2811     01C5  0840               	movf	?___fltol,w
  2812     01C6  00DE               	movwf	_rinse_time
  2813     01C7                     l3016:
  2814                           
  2815                           ;main.c: 425:     {
  2816     01C7  095C               	comf	_wash_time,w
  2817     01C8  00CA               	movwf	??_run_program
  2818     01C9  095D               	comf	_wash_time+1,w
  2819     01CA  00CB               	movwf	??_run_program+1
  2820     01CB  0ACA               	incf	??_run_program,f
  2821     01CC  1903               	skipnz
  2822     01CD  0ACB               	incf	??_run_program+1,f
  2823     01CE  085E               	movf	_rinse_time,w
  2824     01CF  024A               	subwf	??_run_program,w
  2825     01D0  00CC               	movwf	??_run_program+2
  2826     01D1  085F               	movf	_rinse_time+1,w
  2827     01D2  1C03               	skipc
  2828     01D3  0A5F               	incf	_rinse_time+1,w
  2829     01D4  024B               	subwf	??_run_program+1,w
  2830     01D5  00CD               	movwf	??_run_program+3
  2831     01D6  0858               	movf	run_program@total_time,w
  2832     01D7  074C               	addwf	??_run_program+2,w
  2833     01D8  00DA               	movwf	_spin_time
  2834     01D9  0859               	movf	run_program@total_time+1,w
  2835     01DA  1803               	skipnc
  2836     01DB  0A59               	incf	run_program@total_time+1,w
  2837     01DC  074D               	addwf	??_run_program+3,w
  2838     01DD  00DB               	movwf	_spin_time+1
  2839     01DE                     l3018:
  2840                           
  2841                           ;main.c: 428:             clcd_print("Wash", (0x80 + 11));
  2842     01DE  1507               	bsf	7,2	;volatile
  2843     01DF                     l3020:
  2844                           
  2845                           ;main.c: 430:         }
  2846     01DF  1512               	bsf	18,2	;volatile
  2847     01E0                     l3022:
  2848                           
  2849                           ;main.c: 433:             clcd_print("Rinse", (0x80 + 11));
  2850     01E0  301F               	movlw	31
  2851     01E1  0650               	xorwf	run_program@key,w
  2852     01E2  1D03               	btfss	3,2
  2853     01E3  29E5               	goto	u3451
  2854     01E4  29E6               	goto	u3450
  2855     01E5                     u3451:
  2856     01E5  29EA               	goto	l3028
  2857     01E6                     u3450:
  2858     01E6                     l3024:
  2859                           
  2860                           ;main.c: 434: ;main.c: 435:         }
  2861     01E6  1107               	bcf	7,2	;volatile
  2862                           
  2863                           ;main.c: 436:         else
  2864     01E7  1112               	bcf	18,2	;volatile
  2865     01E8                     l3026:
  2866                           
  2867                           ;main.c: 437:         {
  2868     01E8  3005               	movlw	5
  2869     01E9  00E9               	movwf	_operation_mode
  2870     01EA                     l3028:
  2871                           
  2872                           ;main.c: 440:     }
  2873     01EA  0864               	movf	_min,w
  2874     01EB  00CA               	movwf	??_run_program
  2875     01EC  01CB               	clrf	??_run_program+1
  2876     01ED  084A               	movf	??_run_program,w
  2877     01EE  00F2               	movwf	___wmul@multiplier
  2878     01EF  084B               	movf	??_run_program+1,w
  2879     01F0  00F3               	movwf	___wmul@multiplier+1
  2880     01F1  303C               	movlw	60
  2881     01F2  00F4               	movwf	___wmul@multiplicand
  2882     01F3  3000               	movlw	0
  2883     01F4  00F5               	movwf	___wmul@multiplicand+1
  2884     01F5  160A  118A  2783  120A  118A  	fcall	___wmul
  2885     01FA  1283               	bcf	3,5	;RP0=0, select bank0
  2886     01FB  1303               	bcf	3,6	;RP1=0, select bank0
  2887     01FC  0863               	movf	_sec,w
  2888     01FD  0772               	addwf	?___wmul,w
  2889     01FE  00D8               	movwf	run_program@total_time
  2890     01FF  3000               	movlw	0
  2891     0200  1803               	skipnc
  2892     0201  3001               	movlw	1
  2893     0202  0773               	addwf	?___wmul+1,w
  2894     0203  00D9               	movwf	run_program@total_time+1
  2895     0204                     l3030:
  2896                           
  2897                           ;main.c: 441:     else if(program_no == 8)
  2898     0204  3008               	movlw	8
  2899     0205  027B               	subwf	_program_no,w
  2900     0206  1803               	skipnc
  2901     0207  2A09               	goto	u3461
  2902     0208  2A0A               	goto	u3460
  2903     0209                     u3461:
  2904     0209  2A61               	goto	l3042
  2905     020A                     u3460:
  2906     020A                     l3032:
  2907                           
  2908                           ;main.c: 442:     {;main.c: 443:         if(total_time >= (time = (0.40 * time)))
  2909     020A  085C               	movf	_wash_time,w
  2910     020B  0266               	subwf	run_program@time,w
  2911     020C  00CA               	movwf	??_run_program
  2912     020D  085D               	movf	_wash_time+1,w
  2913     020E  1C03               	skipc
  2914     020F  0A5D               	incf	_wash_time+1,w
  2915     0210  0267               	subwf	run_program@time+1,w
  2916     0211  00CB               	movwf	??_run_program+1
  2917     0212  084B               	movf	??_run_program+1,w
  2918     0213  0259               	subwf	run_program@total_time+1,w
  2919     0214  1D03               	skipz
  2920     0215  2A18               	goto	u3475
  2921     0216  084A               	movf	??_run_program,w
  2922     0217  0258               	subwf	run_program@total_time,w
  2923     0218                     u3475:
  2924     0218  1C03               	skipc
  2925     0219  2A1B               	goto	u3471
  2926     021A  2A1C               	goto	u3470
  2927     021B                     u3471:
  2928     021B  2A28               	goto	l3036
  2929     021C                     u3470:
  2930     021C                     l3034:
  2931                           
  2932                           ;main.c: 444:         {;main.c: 445:             clcd_print("Rinse", (0x80 + 11));
  2933     021C  306A               	movlw	low (STR_34| (0+32768))
  2934     021D  00F6               	movwf	clcd_print@str
  2935     021E  3088               	movlw	high (STR_34| (0+32768))
  2936     021F  00F7               	movwf	clcd_print@str+1
  2937     0220  308B               	movlw	139
  2938     0221  00F8               	movwf	clcd_print@addr
  2939     0222  160A  118A  27D1  120A  118A  	fcall	_clcd_print
  2940                           
  2941                           ;main.c: 447:         }
  2942     0227  2AEA               	goto	l3058
  2943     0228                     l3036:
  2944     0228  095C               	comf	_wash_time,w
  2945     0229  00CA               	movwf	??_run_program
  2946     022A  095D               	comf	_wash_time+1,w
  2947     022B  00CB               	movwf	??_run_program+1
  2948     022C  0ACA               	incf	??_run_program,f
  2949     022D  1903               	skipnz
  2950     022E  0ACB               	incf	??_run_program+1,f
  2951     022F  085A               	movf	_spin_time,w
  2952     0230  024A               	subwf	??_run_program,w
  2953     0231  00CC               	movwf	??_run_program+2
  2954     0232  085B               	movf	_spin_time+1,w
  2955     0233  1C03               	skipc
  2956     0234  0A5B               	incf	_spin_time+1,w
  2957     0235  024B               	subwf	??_run_program+1,w
  2958     0236  00CD               	movwf	??_run_program+3
  2959     0237  0866               	movf	run_program@time,w
  2960     0238  074C               	addwf	??_run_program+2,w
  2961     0239  00CE               	movwf	??_run_program+4
  2962     023A  0867               	movf	run_program@time+1,w
  2963     023B  1803               	skipnc
  2964     023C  0A67               	incf	run_program@time+1,w
  2965     023D  074D               	addwf	??_run_program+3,w
  2966     023E  00CF               	movwf	??_run_program+5
  2967     023F  084F               	movf	??_run_program+5,w
  2968     0240  0259               	subwf	run_program@total_time+1,w
  2969     0241  1D03               	skipz
  2970     0242  2A45               	goto	u3485
  2971     0243  084E               	movf	??_run_program+4,w
  2972     0244  0258               	subwf	run_program@total_time,w
  2973     0245                     u3485:
  2974     0245  1C03               	skipc
  2975     0246  2A48               	goto	u3481
  2976     0247  2A49               	goto	u3480
  2977     0248                     u3481:
  2978     0248  2A55               	goto	l3040
  2979     0249                     u3480:
  2980     0249                     l3038:
  2981                           
  2982                           ;main.c: 449:         {;main.c: 450:             clcd_print("Spin ", (0x80 + 11));
  2983     0249  3053               	movlw	low (STR_35| (0+32768))
  2984     024A  00F6               	movwf	clcd_print@str
  2985     024B  3088               	movlw	high (STR_35| (0+32768))
  2986     024C  00F7               	movwf	clcd_print@str+1
  2987     024D  308B               	movlw	139
  2988     024E  00F8               	movwf	clcd_print@addr
  2989     024F  160A  118A  27D1  120A  118A  	fcall	_clcd_print
  2990                           
  2991                           ;main.c: 452:     }
  2992     0254  2AEA               	goto	l3058
  2993     0255                     l3040:
  2994                           
  2995                           ;main.c: 454:     else if(program_no == 9);main.c: 455:     {
  2996     0255  304D               	movlw	low (STR_36| (0+32768))
  2997     0256  00F6               	movwf	clcd_print@str
  2998     0257  3088               	movlw	high (STR_36| (0+32768))
  2999     0258  00F7               	movwf	clcd_print@str+1
  3000     0259  308B               	movlw	139
  3001     025A  00F8               	movwf	clcd_print@addr
  3002     025B  160A  118A  27D1  120A  118A  	fcall	_clcd_print
  3003     0260  2AEA               	goto	l3058
  3004     0261                     l3042:
  3005     0261  3008               	movlw	8
  3006     0262  067B               	xorwf	_program_no,w
  3007     0263  1D03               	btfss	3,2
  3008     0264  2A66               	goto	u3491
  3009     0265  2A67               	goto	u3490
  3010     0266                     u3491:
  3011     0266  2ACD               	goto	l3052
  3012     0267                     u3490:
  3013     0267                     l3044:
  3014                           
  3015                           ;main.c: 459:     {;main.c: 460:         clcd_print("Wash", (0x80 + 11));
  3016     0267  0866               	movf	run_program@time,w
  3017     0268  00F2               	movwf	___xxtofl@val
  3018     0269  0867               	movf	run_program@time+1,w
  3019     026A  00F3               	movwf	___xxtofl@val+1
  3020     026B  3000               	movlw	0
  3021     026C  1BF3               	btfsc	___xxtofl@val+1,7
  3022     026D  30FF               	movlw	255
  3023     026E  00F4               	movwf	___xxtofl@val+2
  3024     026F  00F5               	movwf	___xxtofl@val+3
  3025     0270  3001               	movlw	1
  3026     0271  120A  158A  2368  120A  118A  	fcall	___xxtofl
  3027     0276  0875               	movf	?___xxtofl+3,w
  3028     0277  1283               	bcf	3,5	;RP0=0, select bank0
  3029     0278  1303               	bcf	3,6	;RP1=0, select bank0
  3030     0279  00AD               	movwf	___flmul@a+3
  3031     027A  0874               	movf	?___xxtofl+2,w
  3032     027B  00AC               	movwf	___flmul@a+2
  3033     027C  0873               	movf	?___xxtofl+1,w
  3034     027D  00AB               	movwf	___flmul@a+1
  3035     027E  0872               	movf	?___xxtofl,w
  3036     027F  00AA               	movwf	___flmul@a
  3037     0280  303E               	movlw	62
  3038     0281  00A9               	movwf	___flmul@b+3
  3039     0282  30CC               	movlw	204
  3040     0283  00A8               	movwf	___flmul@b+2
  3041     0284  30CC               	movlw	204
  3042     0285  00A7               	movwf	___flmul@b+1
  3043     0286  30CD               	movlw	205
  3044     0287  00A6               	movwf	___flmul@b
  3045     0288  120A  118A  23B7  120A  118A  	fcall	___flmul
  3046     028D  1283               	bcf	3,5	;RP0=0, select bank0
  3047     028E  1303               	bcf	3,6	;RP1=0, select bank0
  3048     028F  0829               	movf	?___flmul+3,w
  3049     0290  00C3               	movwf	___fltol@f1+3
  3050     0291  0828               	movf	?___flmul+2,w
  3051     0292  00C2               	movwf	___fltol@f1+2
  3052     0293  0827               	movf	?___flmul+1,w
  3053     0294  00C1               	movwf	___fltol@f1+1
  3054     0295  0826               	movf	?___flmul,w
  3055     0296  00C0               	movwf	___fltol@f1
  3056     0297  120A  158A  22F0  120A  118A  	fcall	___fltol
  3057     029C  1283               	bcf	3,5	;RP0=0, select bank0
  3058     029D  1303               	bcf	3,6	;RP1=0, select bank0
  3059     029E  0841               	movf	?___fltol+1,w
  3060     029F  00E7               	movwf	run_program@time+1
  3061     02A0  0840               	movf	?___fltol,w
  3062     02A1  00E6               	movwf	run_program@time
  3063     02A2  0859               	movf	run_program@total_time+1,w
  3064     02A3  3A80               	xorlw	128
  3065     02A4  00CA               	movwf	??_run_program
  3066     02A5  0867               	movf	run_program@time+1,w
  3067     02A6  3A80               	xorlw	128
  3068     02A7  024A               	subwf	??_run_program,w
  3069     02A8  1D03               	skipz
  3070     02A9  2AAC               	goto	u3505
  3071     02AA  0866               	movf	run_program@time,w
  3072     02AB  0258               	subwf	run_program@total_time,w
  3073     02AC                     u3505:
  3074     02AC  1C03               	skipc
  3075     02AD  2AAF               	goto	u3501
  3076     02AE  2AB0               	goto	u3500
  3077     02AF                     u3501:
  3078     02AF  2AC1               	goto	l3050
  3079     02B0                     u3500:
  3080     02B0                     l3046:
  3081                           
  3082                           ;main.c: 461: ;main.c: 462:     }
  3083     02B0  3053               	movlw	low (STR_35| (0+32768))
  3084     02B1  00F6               	movwf	clcd_print@str
  3085     02B2  3088               	movlw	high (STR_35| (0+32768))
  3086     02B3  00F7               	movwf	clcd_print@str+1
  3087     02B4  308B               	movlw	139
  3088     02B5  00F8               	movwf	clcd_print@addr
  3089     02B6  160A  118A  27D1  120A  118A  	fcall	_clcd_print
  3090     02BB                     l3048:
  3091                           
  3092                           ;main.c: 463: 
  3093     02BB  160A  118A  270C  120A  118A  	fcall	_clcd_clear
  3094                           
  3095                           ;main.c: 464:     clcd_putch((min/10) + '0', (0xC0 + 6));
  3096     02C0  2AEA               	goto	l3058
  3097     02C1                     l3050:
  3098                           
  3099                           ;main.c: 466:     clcd_putch(':', (0xC0 + 8));;main.c: 467:     clcd_putch((sec/10) + '0
      +                          ', (0xC0 + 9));
  3100     02C1  304D               	movlw	low (STR_36| (0+32768))
  3101     02C2  00F6               	movwf	clcd_print@str
  3102     02C3  3088               	movlw	high (STR_36| (0+32768))
  3103     02C4  00F7               	movwf	clcd_print@str+1
  3104     02C5  308B               	movlw	139
  3105     02C6  00F8               	movwf	clcd_print@addr
  3106     02C7  160A  118A  27D1  120A  118A  	fcall	_clcd_print
  3107     02CC  2AEA               	goto	l3058
  3108     02CD                     l3052:
  3109     02CD  3009               	movlw	9
  3110     02CE  067B               	xorwf	_program_no,w
  3111     02CF  1D03               	btfss	3,2
  3112     02D0  2AD2               	goto	u3511
  3113     02D1  2AD3               	goto	u3510
  3114     02D2                     u3511:
  3115     02D2  2ADF               	goto	l3056
  3116     02D3                     u3510:
  3117     02D3                     l3054:
  3118                           
  3119                           ;main.c: 472:     {;main.c: 473:         RC2 = 0;
  3120     02D3  304D               	movlw	low (STR_36| (0+32768))
  3121     02D4  00F6               	movwf	clcd_print@str
  3122     02D5  3088               	movlw	high (STR_36| (0+32768))
  3123     02D6  00F7               	movwf	clcd_print@str+1
  3124     02D7  308B               	movlw	139
  3125     02D8  00F8               	movwf	clcd_print@addr
  3126     02D9  160A  118A  27D1  120A  118A  	fcall	_clcd_print
  3127                           
  3128                           ;main.c: 474:         TMR2ON = 0;
  3129     02DE  2AEA               	goto	l3058
  3130     02DF                     l3056:
  3131                           
  3132                           ;main.c: 476:         for (unsigned int wait = 50000; wait--;);;main.c: 477:         RC1
      +                           = 1;
  3133     02DF  306A               	movlw	low (STR_34| (0+32768))
  3134     02E0  00F6               	movwf	clcd_print@str
  3135     02E1  3088               	movlw	high (STR_34| (0+32768))
  3136     02E2  00F7               	movwf	clcd_print@str+1
  3137     02E3  308B               	movlw	139
  3138     02E4  00F8               	movwf	clcd_print@addr
  3139     02E5  160A  118A  27D1  120A  118A  	fcall	_clcd_print
  3140     02EA                     l3058:
  3141                           
  3142                           ;main.c: 481:         clcd_print("Remove Clothes", (0xC0 + 0));
  3143     02EA  30C6               	movlw	198
  3144     02EB  1283               	bcf	3,5	;RP0=0, select bank0
  3145     02EC  1303               	bcf	3,6	;RP1=0, select bank0
  3146     02ED  00A0               	movwf	clcd_putch@addr
  3147     02EE  300A               	movlw	10
  3148     02EF  00F2               	movwf	___awdiv@divisor
  3149     02F0  3000               	movlw	0
  3150     02F1  00F3               	movwf	___awdiv@divisor+1
  3151     02F2  0864               	movf	_min,w
  3152     02F3  00CA               	movwf	??_run_program
  3153     02F4  01CB               	clrf	??_run_program+1
  3154     02F5  084A               	movf	??_run_program,w
  3155     02F6  00F4               	movwf	___awdiv@dividend
  3156     02F7  084B               	movf	??_run_program+1,w
  3157     02F8  00F5               	movwf	___awdiv@dividend+1
  3158     02F9  120A  158A  2289  120A  118A  	fcall	___awdiv
  3159     02FE  0872               	movf	?___awdiv,w
  3160     02FF  3E30               	addlw	48
  3161     0300  160A  118A  272C  120A  118A  	fcall	_clcd_putch
  3162     0305                     l3060:
  3163                           
  3164                           ;main.c: 482:         _delay((unsigned long)((3000)*(20000000/4000.0)));
  3165     0305  30C7               	movlw	199
  3166     0306  1283               	bcf	3,5	;RP0=0, select bank0
  3167     0307  1303               	bcf	3,6	;RP1=0, select bank0
  3168     0308  00A0               	movwf	clcd_putch@addr
  3169     0309  300A               	movlw	10
  3170     030A  00F2               	movwf	___awmod@divisor
  3171     030B  3000               	movlw	0
  3172     030C  00F3               	movwf	___awmod@divisor+1
  3173     030D  0864               	movf	_min,w
  3174     030E  00CA               	movwf	??_run_program
  3175     030F  01CB               	clrf	??_run_program+1
  3176     0310  084A               	movf	??_run_program,w
  3177     0311  00F4               	movwf	___awmod@dividend
  3178     0312  084B               	movf	??_run_program+1,w
  3179     0313  00F5               	movwf	___awmod@dividend+1
  3180     0314  120A  158A  2176  120A  118A  	fcall	___awmod
  3181     0319  0872               	movf	?___awmod,w
  3182     031A  3E30               	addlw	48
  3183     031B  160A  118A  272C  120A  118A  	fcall	_clcd_putch
  3184     0320                     l3062:
  3185                           
  3186                           ;main.c: 483:         RC1 = 0;
  3187     0320  30C8               	movlw	200
  3188     0321  1283               	bcf	3,5	;RP0=0, select bank0
  3189     0322  1303               	bcf	3,6	;RP1=0, select bank0
  3190     0323  00A0               	movwf	clcd_putch@addr
  3191     0324  303A               	movlw	58
  3192     0325  160A  118A  272C  120A  118A  	fcall	_clcd_putch
  3193     032A                     l3064:
  3194                           
  3195                           ;main.c: 484: 
  3196     032A  30C9               	movlw	201
  3197     032B  1283               	bcf	3,5	;RP0=0, select bank0
  3198     032C  1303               	bcf	3,6	;RP1=0, select bank0
  3199     032D  00A0               	movwf	clcd_putch@addr
  3200     032E  300A               	movlw	10
  3201     032F  00F2               	movwf	___awdiv@divisor
  3202     0330  3000               	movlw	0
  3203     0331  00F3               	movwf	___awdiv@divisor+1
  3204     0332  0863               	movf	_sec,w
  3205     0333  00CA               	movwf	??_run_program
  3206     0334  01CB               	clrf	??_run_program+1
  3207     0335  084A               	movf	??_run_program,w
  3208     0336  00F4               	movwf	___awdiv@dividend
  3209     0337  084B               	movf	??_run_program+1,w
  3210     0338  00F5               	movwf	___awdiv@dividend+1
  3211     0339  120A  158A  2289  120A  118A  	fcall	___awdiv
  3212     033E  0872               	movf	?___awdiv,w
  3213     033F  3E30               	addlw	48
  3214     0340  160A  118A  272C  120A  118A  	fcall	_clcd_putch
  3215     0345                     l3066:
  3216                           
  3217                           ;main.c: 485:         operation_mode = 0x01 ;
  3218     0345  30CA               	movlw	202
  3219     0346  1283               	bcf	3,5	;RP0=0, select bank0
  3220     0347  1303               	bcf	3,6	;RP1=0, select bank0
  3221     0348  00A0               	movwf	clcd_putch@addr
  3222     0349  300A               	movlw	10
  3223     034A  00F2               	movwf	___awmod@divisor
  3224     034B  3000               	movlw	0
  3225     034C  00F3               	movwf	___awmod@divisor+1
  3226     034D  0863               	movf	_sec,w
  3227     034E  00CA               	movwf	??_run_program
  3228     034F  01CB               	clrf	??_run_program+1
  3229     0350  084A               	movf	??_run_program,w
  3230     0351  00F4               	movwf	___awmod@dividend
  3231     0352  084B               	movf	??_run_program+1,w
  3232     0353  00F5               	movwf	___awmod@dividend+1
  3233     0354  120A  158A  2176  120A  118A  	fcall	___awmod
  3234     0359  0872               	movf	?___awmod,w
  3235     035A  3E30               	addlw	48
  3236     035B  160A  118A  272C  120A  118A  	fcall	_clcd_putch
  3237     0360                     l3068:
  3238                           
  3239                           ;main.c: 488:     }
  3240     0360  1283               	bcf	3,5	;RP0=0, select bank0
  3241     0361  1303               	bcf	3,6	;RP1=0, select bank0
  3242     0362  0863               	movf	_sec,w
  3243     0363  1D03               	btfss	3,2
  3244     0364  2B66               	goto	u3521
  3245     0365  2B67               	goto	u3520
  3246     0366                     u3521:
  3247     0366  2BB6               	goto	l209
  3248     0367                     u3520:
  3249     0367                     l3070:
  3250     0367  0864               	movf	_min,w
  3251     0368  1D03               	btfss	3,2
  3252     0369  2B6B               	goto	u3531
  3253     036A  2B6C               	goto	u3530
  3254     036B                     u3531:
  3255     036B  2BB6               	goto	l209
  3256     036C                     u3530:
  3257     036C                     l3072:
  3258                           
  3259                           ;main.c: 489: };main.c: 490: 
  3260     036C  1107               	bcf	7,2	;volatile
  3261                           
  3262                           ;main.c: 491: void door_status_check(void)
  3263     036D  1112               	bcf	18,2	;volatile
  3264     036E                     l3074:
  3265                           
  3266                           ;main.c: 493:     if(RB0 == 0)
  3267     036E  3050               	movlw	80
  3268     036F  00D1               	movwf	run_program@wait
  3269     0370  30C3               	movlw	195
  3270     0371  00D2               	movwf	run_program@wait+1
  3271     0372                     l3076:
  3272     0372  3001               	movlw	1
  3273     0373  02D1               	subwf	run_program@wait,f
  3274     0374  3000               	movlw	0
  3275     0375  1C03               	skipc
  3276     0376  03D2               	decf	run_program@wait+1,f
  3277     0377  02D2               	subwf	run_program@wait+1,f
  3278     0378  0A51               	incf	run_program@wait,w
  3279     0379  1D03               	skipz
  3280     037A  2B7F               	goto	u3541
  3281     037B  0A52               	incf	run_program@wait+1,w
  3282     037C  1D03               	btfss	3,2
  3283     037D  2B7F               	goto	u3541
  3284     037E  2B80               	goto	u3540
  3285     037F                     u3541:
  3286     037F  2B72               	goto	l3076
  3287     0380                     u3540:
  3288     0380                     l208:
  3289                           
  3290                           ;main.c: 494:     {
  3291     0380  1487               	bsf	7,1	;volatile
  3292     0381                     l3078:
  3293                           
  3294                           ;main.c: 496:         RC2 = 0;
  3295     0381  160A  118A  270C  120A  118A  	fcall	_clcd_clear
  3296     0386                     l3080:
  3297                           
  3298                           ;main.c: 497:         TMR2ON = 0;
  3299     0386  3011               	movlw	low (STR_41| (0+32768))
  3300     0387  00F6               	movwf	clcd_print@str
  3301     0388  3087               	movlw	high (STR_41| (0+32768))
  3302     0389  00F7               	movwf	clcd_print@str+1
  3303     038A  3080               	movlw	128
  3304     038B  00F8               	movwf	clcd_print@addr
  3305     038C  160A  118A  27D1  120A  118A  	fcall	_clcd_print
  3306     0391                     l3082:
  3307                           
  3308                           ;main.c: 498:         RC1 = 1;
  3309     0391  3050               	movlw	low (STR_42| (0+32768))
  3310     0392  00F6               	movwf	clcd_print@str
  3311     0393  3087               	movlw	high (STR_42| (0+32768))
  3312     0394  00F7               	movwf	clcd_print@str+1
  3313     0395  30C0               	movlw	192
  3314     0396  00F8               	movwf	clcd_print@addr
  3315     0397  160A  118A  27D1  120A  118A  	fcall	_clcd_print
  3316     039C                     l3084:
  3317                           
  3318                           ;main.c: 499:         clcd_clear();
  3319     039C  304D               	movlw	77
  3320     039D  1283               	bcf	3,5	;RP0=0, select bank0
  3321     039E  1303               	bcf	3,6	;RP1=0, select bank0
  3322     039F  00CC               	movwf	??_run_program+2
  3323     03A0  3019               	movlw	25
  3324     03A1  00CB               	movwf	??_run_program+1
  3325     03A2  304F               	movlw	79
  3326     03A3  00CA               	movwf	??_run_program
  3327     03A4                     u3667:
  3328     03A4  0BCA               	decfsz	??_run_program,f
  3329     03A5  2BA4               	goto	u3667
  3330     03A6  0BCB               	decfsz	??_run_program+1,f
  3331     03A7  2BA4               	goto	u3667
  3332     03A8  0BCC               	decfsz	??_run_program+2,f
  3333     03A9  2BA4               	goto	u3667
  3334     03AA                     l3086:
  3335                           
  3336                           ;main.c: 500:         clcd_print("Door : open", (0x80 + 0));
  3337     03AA  1283               	bcf	3,5	;RP0=0, select bank0
  3338     03AB  1303               	bcf	3,6	;RP1=0, select bank0
  3339     03AC  1087               	bcf	7,1	;volatile
  3340     03AD                     l3088:
  3341                           
  3342                           ;main.c: 502:         while(RB0 == 0)
  3343     03AD  01E9               	clrf	_operation_mode
  3344     03AE  0AE9               	incf	_operation_mode,f
  3345     03AF                     l3090:
  3346                           
  3347                           ;main.c: 503:         {
  3348     03AF  3010               	movlw	16
  3349     03B0  00E5               	movwf	_reset_mode
  3350                           
  3351                           ;main.c: 504:             ;
  3352     03B1  160A  118A  270C  120A  118A  	fcall	_clcd_clear
  3353     03B6                     l209:
  3354     03B6  0008               	return
  3355     03B7                     __end_of_run_program:
  3356                           
  3357                           	psect	text4
  3358     0F06                     __ptext4:	
  3359 ;; *************** function _set_timer *****************
  3360 ;; Defined at:
  3361 ;;		line 240 in file "main.c"
  3362 ;; Parameters:    Size  Location     Type
  3363 ;;		None
  3364 ;; Auto vars:     Size  Location     Type
  3365 ;;		None
  3366 ;; Return value:  Size  Location     Type
  3367 ;;                  1    wreg      void 
  3368 ;; Registers used:
  3369 ;;		wreg, fsr0l, fsr0h, status,2, status,0
  3370 ;; Tracked objects:
  3371 ;;		On entry : 0/0
  3372 ;;		On exit  : 0/0
  3373 ;;		Unchanged: 0/0
  3374 ;; Data sizes:     COMMON   BANK0   BANK1   BANK3   BANK2
  3375 ;;      Params:         0       0       0       0       0
  3376 ;;      Locals:         0       0       0       0       0
  3377 ;;      Temps:          0       0       0       0       0
  3378 ;;      Totals:         0       0       0       0       0
  3379 ;;Total ram usage:        0 bytes
  3380 ;; Hardware stack levels used: 1
  3381 ;; Hardware stack levels required when called: 1
  3382 ;; This function calls:
  3383 ;;		Nothing
  3384 ;; This function is called by:
  3385 ;;		_main
  3386 ;;		_run_program
  3387 ;; This function uses a non-reentrant model
  3388 ;;
  3389                           
  3390     0F06                     _set_timer:	
  3391                           ;psect for function _set_timer
  3392                           
  3393     0F06                     l1816:	
  3394                           ;incstack = 0
  3395                           ; Regs used in _set_timer: [wreg-fsr0h+status,2+status,0]
  3396                           
  3397                           
  3398                           ;main.c: 242:                 case 3:
  3399     0F06  2FD9               	goto	l1926
  3400     0F07                     l1818:
  3401                           
  3402                           ;main.c: 250:         case 1:
  3403     0F07  3021               	movlw	33
  3404     0F08  1283               	bcf	3,5	;RP0=0, select bank0
  3405     0F09  1303               	bcf	3,6	;RP1=0, select bank0
  3406     0F0A  00E3               	movwf	_sec
  3407     0F0B                     l1820:
  3408                           
  3409                           ;main.c: 251:             switch(water_level_index)
  3410     0F0B  01E4               	clrf	_min
  3411                           
  3412                           ;main.c: 252:             {
  3413     0F0C  2FFF               	goto	l184
  3414     0F0D                     l1822:
  3415                           
  3416                           ;main.c: 255:                     sec = 43;
  3417     0F0D  302C               	movlw	44
  3418     0F0E  1283               	bcf	3,5	;RP0=0, select bank0
  3419     0F0F  1303               	bcf	3,6	;RP1=0, select bank0
  3420     0F10  00E3               	movwf	_sec
  3421     0F11  2F0B               	goto	l1820
  3422     0F12                     l1826:
  3423                           
  3424                           ;main.c: 261:                     sec = 50;
  3425     0F12  302D               	movlw	45
  3426     0F13  1283               	bcf	3,5	;RP0=0, select bank0
  3427     0F14  1303               	bcf	3,6	;RP1=0, select bank0
  3428     0F15  00E3               	movwf	_sec
  3429     0F16  2F0B               	goto	l1820
  3430     0F17                     l1832:
  3431     0F17  087A               	movf	_water_level_index,w
  3432                           
  3433                           ; Switch size 1, requested type "simple"
  3434                           ; Number of cases is 5, Range of values is 0 to 4
  3435                           ; switch strategies available:
  3436                           ; Name         Instructions Cycles
  3437                           ; simple_byte           16     9 (average)
  3438                           ; direct_byte           23     8 (fixed)
  3439                           ; jumptable            260     6 (fixed)
  3440                           ;	Chosen strategy is simple_byte
  3441     0F18  3A00               	xorlw	0	; case 0
  3442     0F19  1903               	skipnz
  3443     0F1A  2F0D               	goto	l1822
  3444     0F1B  3A01               	xorlw	1	; case 1
  3445     0F1C  1903               	skipnz
  3446     0F1D  2F07               	goto	l1818
  3447     0F1E  3A03               	xorlw	3	; case 2
  3448     0F1F  1903               	skipnz
  3449     0F20  2F0D               	goto	l1822
  3450     0F21  3A01               	xorlw	1	; case 3
  3451     0F22  1903               	skipnz
  3452     0F23  2F12               	goto	l1826
  3453     0F24  3A07               	xorlw	7	; case 4
  3454     0F25  1903               	skipnz
  3455     0F26  2F12               	goto	l1826
  3456     0F27  2FFF               	goto	l184
  3457     0F28                     l1834:
  3458                           
  3459                           ;main.c: 272:         case 2:
  3460     0F28  302B               	movlw	43
  3461     0F29  1283               	bcf	3,5	;RP0=0, select bank0
  3462     0F2A  1303               	bcf	3,6	;RP1=0, select bank0
  3463     0F2B  00E3               	movwf	_sec
  3464     0F2C  2F0B               	goto	l1820
  3465     0F2D                     l1838:
  3466                           
  3467                           ;main.c: 278:                 case 2:
  3468     0F2D  3032               	movlw	50
  3469     0F2E  1283               	bcf	3,5	;RP0=0, select bank0
  3470     0F2F  1303               	bcf	3,6	;RP1=0, select bank0
  3471     0F30  00E3               	movwf	_sec
  3472     0F31  2F0B               	goto	l1820
  3473     0F32                     l1842:
  3474                           
  3475                           ;main.c: 284:                 case 4:
  3476     0F32  3039               	movlw	57
  3477     0F33  1283               	bcf	3,5	;RP0=0, select bank0
  3478     0F34  1303               	bcf	3,6	;RP1=0, select bank0
  3479     0F35  00E3               	movwf	_sec
  3480     0F36  2F0B               	goto	l1820
  3481     0F37                     l1848:
  3482     0F37  087A               	movf	_water_level_index,w
  3483                           
  3484                           ; Switch size 1, requested type "simple"
  3485                           ; Number of cases is 5, Range of values is 0 to 4
  3486                           ; switch strategies available:
  3487                           ; Name         Instructions Cycles
  3488                           ; simple_byte           16     9 (average)
  3489                           ; direct_byte           23     8 (fixed)
  3490                           ; jumptable            260     6 (fixed)
  3491                           ;	Chosen strategy is simple_byte
  3492     0F38  3A00               	xorlw	0	; case 0
  3493     0F39  1903               	skipnz
  3494     0F3A  2F2D               	goto	l1838
  3495     0F3B  3A01               	xorlw	1	; case 1
  3496     0F3C  1903               	skipnz
  3497     0F3D  2F28               	goto	l1834
  3498     0F3E  3A03               	xorlw	3	; case 2
  3499     0F3F  1903               	skipnz
  3500     0F40  2F2D               	goto	l1838
  3501     0F41  3A01               	xorlw	1	; case 3
  3502     0F42  1903               	skipnz
  3503     0F43  2F32               	goto	l1842
  3504     0F44  3A07               	xorlw	7	; case 4
  3505     0F45  1903               	skipnz
  3506     0F46  2F32               	goto	l1842
  3507     0F47  2FFF               	goto	l184
  3508     0F48                     l1850:
  3509                           
  3510                           ;main.c: 296:         {
  3511     0F48  301A               	movlw	26
  3512     0F49  1283               	bcf	3,5	;RP0=0, select bank0
  3513     0F4A  1303               	bcf	3,6	;RP1=0, select bank0
  3514     0F4B  00E3               	movwf	_sec
  3515     0F4C                     l1852:
  3516                           
  3517                           ;main.c: 297:             sec = 36;
  3518     0F4C  01E4               	clrf	_min
  3519                           
  3520                           ;main.c: 298:             min = 1;
  3521     0F4D  2F64               	goto	l1862
  3522     0F4E                     l1854:
  3523                           
  3524                           ;main.c: 302:         {
  3525     0F4E  301F               	movlw	31
  3526     0F4F  1283               	bcf	3,5	;RP0=0, select bank0
  3527     0F50  1303               	bcf	3,6	;RP1=0, select bank0
  3528     0F51  00E3               	movwf	_sec
  3529     0F52  2F4C               	goto	l1852
  3530     0F53                     l1860:
  3531     0F53  087A               	movf	_water_level_index,w
  3532                           
  3533                           ; Switch size 1, requested type "simple"
  3534                           ; Number of cases is 5, Range of values is 0 to 4
  3535                           ; switch strategies available:
  3536                           ; Name         Instructions Cycles
  3537                           ; simple_byte           16     9 (average)
  3538                           ; direct_byte           23     8 (fixed)
  3539                           ; jumptable            260     6 (fixed)
  3540                           ;	Chosen strategy is simple_byte
  3541     0F54  3A00               	xorlw	0	; case 0
  3542     0F55  1903               	skipnz
  3543     0F56  2F48               	goto	l1850
  3544     0F57  3A01               	xorlw	1	; case 1
  3545     0F58  1903               	skipnz
  3546     0F59  2F48               	goto	l1850
  3547     0F5A  3A03               	xorlw	3	; case 2
  3548     0F5B  1903               	skipnz
  3549     0F5C  2F48               	goto	l1850
  3550     0F5D  3A01               	xorlw	1	; case 3
  3551     0F5E  1903               	skipnz
  3552     0F5F  2F4E               	goto	l1854
  3553     0F60  3A07               	xorlw	7	; case 4
  3554     0F61  1903               	skipnz
  3555     0F62  2F4E               	goto	l1854
  3556     0F63  2F64               	goto	l1862
  3557     0F64                     l1862:
  3558                           
  3559                           ;main.c: 307:         case 6:;main.c: 308:         {
  3560     0F64  3010               	movlw	16
  3561     0F65  1283               	bcf	3,5	;RP0=0, select bank0
  3562     0F66  1303               	bcf	3,6	;RP1=0, select bank0
  3563     0F67  00E3               	movwf	_sec
  3564     0F68                     l1864:
  3565                           
  3566                           ;main.c: 309:             sec = 29;
  3567     0F68  01E4               	clrf	_min
  3568     0F69  0AE4               	incf	_min,f
  3569                           
  3570                           ;main.c: 310:             min = 0;
  3571     0F6A  2FFF               	goto	l184
  3572     0F6B                     l1866:
  3573                           
  3574                           ;main.c: 313:         case 7:;main.c: 314:         switch(water_level_index)
  3575     0F6B  3024               	movlw	36
  3576     0F6C  1283               	bcf	3,5	;RP0=0, select bank0
  3577     0F6D  1303               	bcf	3,6	;RP1=0, select bank0
  3578     0F6E  00E3               	movwf	_sec
  3579     0F6F  2F68               	goto	l1864
  3580     0F70                     l1870:
  3581                           
  3582                           ;main.c: 319:                     min = 0;;main.c: 320:                     break;
  3583     0F70  3024               	movlw	36
  3584     0F71  1283               	bcf	3,5	;RP0=0, select bank0
  3585     0F72  1303               	bcf	3,6	;RP1=0, select bank0
  3586     0F73  00E3               	movwf	_sec
  3587     0F74  2F0B               	goto	l1820
  3588     0F75                     l1874:
  3589                           
  3590                           ;main.c: 325:                     break;;main.c: 326: 
  3591     0F75  301D               	movlw	29
  3592     0F76  1283               	bcf	3,5	;RP0=0, select bank0
  3593     0F77  1303               	bcf	3,6	;RP1=0, select bank0
  3594     0F78  00E3               	movwf	_sec
  3595     0F79  2F0B               	goto	l1820
  3596     0F7A                     l1878:
  3597                           
  3598                           ;main.c: 335:         case 8:
  3599     0F7A  302E               	movlw	46
  3600     0F7B  1283               	bcf	3,5	;RP0=0, select bank0
  3601     0F7C  1303               	bcf	3,6	;RP1=0, select bank0
  3602     0F7D  00E3               	movwf	_sec
  3603     0F7E  2F0B               	goto	l1820
  3604     0F7F                     l1882:
  3605                           
  3606                           ;main.c: 340:                     sec = 18;
  3607     0F7F  3035               	movlw	53
  3608     0F80  1283               	bcf	3,5	;RP0=0, select bank0
  3609     0F81  1303               	bcf	3,6	;RP1=0, select bank0
  3610     0F82  00E3               	movwf	_sec
  3611     0F83  2F0B               	goto	l1820
  3612     0F84                     l1886:
  3613                           
  3614                           ;main.c: 346:                 case 4:
  3615     0F84  1283               	bcf	3,5	;RP0=0, select bank0
  3616     0F85  1303               	bcf	3,6	;RP1=0, select bank0
  3617     0F86  01E3               	clrf	_sec
  3618     0F87  2F68               	goto	l1864
  3619     0F88                     l1892:
  3620     0F88  087A               	movf	_water_level_index,w
  3621                           
  3622                           ; Switch size 1, requested type "simple"
  3623                           ; Number of cases is 5, Range of values is 0 to 4
  3624                           ; switch strategies available:
  3625                           ; Name         Instructions Cycles
  3626                           ; simple_byte           16     9 (average)
  3627                           ; direct_byte           23     8 (fixed)
  3628                           ; jumptable            260     6 (fixed)
  3629                           ;	Chosen strategy is simple_byte
  3630     0F89  3A00               	xorlw	0	; case 0
  3631     0F8A  1903               	skipnz
  3632     0F8B  2F7F               	goto	l1882
  3633     0F8C  3A01               	xorlw	1	; case 1
  3634     0F8D  1903               	skipnz
  3635     0F8E  2F7A               	goto	l1878
  3636     0F8F  3A03               	xorlw	3	; case 2
  3637     0F90  1903               	skipnz
  3638     0F91  2F7F               	goto	l1882
  3639     0F92  3A01               	xorlw	1	; case 3
  3640     0F93  1903               	skipnz
  3641     0F94  2F84               	goto	l1886
  3642     0F95  3A07               	xorlw	7	; case 4
  3643     0F96  1903               	skipnz
  3644     0F97  2F84               	goto	l1886
  3645     0F98  2FFF               	goto	l184
  3646     0F99                     l1894:
  3647                           
  3648                           ;main.c: 357:         case 11:
  3649     0F99  3012               	movlw	18
  3650     0F9A  1283               	bcf	3,5	;RP0=0, select bank0
  3651     0F9B  1303               	bcf	3,6	;RP1=0, select bank0
  3652     0F9C  00E3               	movwf	_sec
  3653     0F9D  2F0B               	goto	l1820
  3654     0F9E                     l172:	
  3655                           ;main.c: 362:                     sec = 16;
  3656                           
  3657     0F9E                     l1898:
  3658                           
  3659                           ;main.c: 364:                     break;
  3660     0F9E  3014               	movlw	20
  3661     0F9F  1283               	bcf	3,5	;RP0=0, select bank0
  3662     0FA0  1303               	bcf	3,6	;RP1=0, select bank0
  3663     0FA1  00E3               	movwf	_sec
  3664     0FA2  2F0B               	goto	l1820
  3665     0FA3                     l1904:
  3666     0FA3  087A               	movf	_water_level_index,w
  3667                           
  3668                           ; Switch size 1, requested type "simple"
  3669                           ; Number of cases is 5, Range of values is 0 to 4
  3670                           ; switch strategies available:
  3671                           ; Name         Instructions Cycles
  3672                           ; simple_byte           16     9 (average)
  3673                           ; direct_byte           23     8 (fixed)
  3674                           ; jumptable            260     6 (fixed)
  3675                           ;	Chosen strategy is simple_byte
  3676     0FA4  3A00               	xorlw	0	; case 0
  3677     0FA5  1903               	skipnz
  3678     0FA6  2F9E               	goto	l172
  3679     0FA7  3A01               	xorlw	1	; case 1
  3680     0FA8  1903               	skipnz
  3681     0FA9  2F99               	goto	l1894
  3682     0FAA  3A03               	xorlw	3	; case 2
  3683     0FAB  1903               	skipnz
  3684     0FAC  2F9E               	goto	l1898
  3685     0FAD  3A01               	xorlw	1	; case 3
  3686     0FAE  1903               	skipnz
  3687     0FAF  2F9E               	goto	l1898
  3688     0FB0  3A07               	xorlw	7	; case 4
  3689     0FB1  1903               	skipnz
  3690     0FB2  2F9E               	goto	l1898
  3691     0FB3  2FFF               	goto	l184
  3692     0FB4                     l1906:
  3693                           
  3694                           ;main.c: 370:                 case 3:
  3695     0FB4  3006               	movlw	6
  3696     0FB5  1283               	bcf	3,5	;RP0=0, select bank0
  3697     0FB6  1303               	bcf	3,6	;RP1=0, select bank0
  3698     0FB7  00E3               	movwf	_sec
  3699     0FB8  2F0B               	goto	l1820
  3700     0FB9                     l1910:
  3701                           
  3702                           ;main.c: 379: void run_program(unsigned char key)
  3703     0FB9  3010               	movlw	16
  3704     0FBA  1283               	bcf	3,5	;RP0=0, select bank0
  3705     0FBB  1303               	bcf	3,6	;RP1=0, select bank0
  3706     0FBC  00E3               	movwf	_sec
  3707     0FBD  2F0B               	goto	l1820
  3708     0FBE                     l1914:
  3709                           
  3710                           ;main.c: 384:     {
  3711     0FBE  3015               	movlw	21
  3712     0FBF  1283               	bcf	3,5	;RP0=0, select bank0
  3713     0FC0  1303               	bcf	3,6	;RP1=0, select bank0
  3714     0FC1  00E3               	movwf	_sec
  3715     0FC2  2F0B               	goto	l1820
  3716     0FC3                     l1918:
  3717                           
  3718                           ;main.c: 389:         clcd_print("Time: ", (0xC0 + 0));
  3719     0FC3  301A               	movlw	26
  3720     0FC4  1283               	bcf	3,5	;RP0=0, select bank0
  3721     0FC5  1303               	bcf	3,6	;RP1=0, select bank0
  3722     0FC6  00E3               	movwf	_sec
  3723     0FC7  2F0B               	goto	l1820
  3724     0FC8                     l1924:
  3725     0FC8  087A               	movf	_water_level_index,w
  3726                           
  3727                           ; Switch size 1, requested type "simple"
  3728                           ; Number of cases is 5, Range of values is 0 to 4
  3729                           ; switch strategies available:
  3730                           ; Name         Instructions Cycles
  3731                           ; simple_byte           16     9 (average)
  3732                           ; direct_byte           23     8 (fixed)
  3733                           ; jumptable            260     6 (fixed)
  3734                           ;	Chosen strategy is simple_byte
  3735     0FC9  3A00               	xorlw	0	; case 0
  3736     0FCA  1903               	skipnz
  3737     0FCB  2FBE               	goto	l1914
  3738     0FCC  3A01               	xorlw	1	; case 1
  3739     0FCD  1903               	skipnz
  3740     0FCE  2FB9               	goto	l1910
  3741     0FCF  3A03               	xorlw	3	; case 2
  3742     0FD0  1903               	skipnz
  3743     0FD1  2FBE               	goto	l1914
  3744     0FD2  3A01               	xorlw	1	; case 3
  3745     0FD3  1903               	skipnz
  3746     0FD4  2FC3               	goto	l1918
  3747     0FD5  3A07               	xorlw	7	; case 4
  3748     0FD6  1903               	skipnz
  3749     0FD7  2FC3               	goto	l1918
  3750     0FD8  2FFF               	goto	l184
  3751     0FD9                     l1926:
  3752     0FD9  087B               	movf	_program_no,w
  3753                           
  3754                           ; Switch size 1, requested type "simple"
  3755                           ; Number of cases is 12, Range of values is 0 to 11
  3756                           ; switch strategies available:
  3757                           ; Name         Instructions Cycles
  3758                           ; simple_byte           37    19 (average)
  3759                           ; direct_byte           44     8 (fixed)
  3760                           ; jumptable            260     6 (fixed)
  3761                           ;	Chosen strategy is simple_byte
  3762     0FDA  3A00               	xorlw	0	; case 0
  3763     0FDB  1903               	skipnz
  3764     0FDC  2F17               	goto	l1832
  3765     0FDD  3A01               	xorlw	1	; case 1
  3766     0FDE  1903               	skipnz
  3767     0FDF  2F37               	goto	l1848
  3768     0FE0  3A03               	xorlw	3	; case 2
  3769     0FE1  1903               	skipnz
  3770     0FE2  2F53               	goto	l1860
  3771     0FE3  3A01               	xorlw	1	; case 3
  3772     0FE4  1903               	skipnz
  3773     0FE5  2F64               	goto	l1862
  3774     0FE6  3A07               	xorlw	7	; case 4
  3775     0FE7  1903               	skipnz
  3776     0FE8  2F6B               	goto	l1866
  3777     0FE9  3A01               	xorlw	1	; case 5
  3778     0FEA  1903               	skipnz
  3779     0FEB  2F70               	goto	l1870
  3780     0FEC  3A03               	xorlw	3	; case 6
  3781     0FED  1903               	skipnz
  3782     0FEE  2F75               	goto	l1874
  3783     0FEF  3A01               	xorlw	1	; case 7
  3784     0FF0  1903               	skipnz
  3785     0FF1  2F88               	goto	l1892
  3786     0FF2  3A0F               	xorlw	15	; case 8
  3787     0FF3  1903               	skipnz
  3788     0FF4  2FA3               	goto	l1904
  3789     0FF5  3A01               	xorlw	1	; case 9
  3790     0FF6  1903               	skipnz
  3791     0FF7  2FB4               	goto	l1906
  3792     0FF8  3A03               	xorlw	3	; case 10
  3793     0FF9  1903               	skipnz
  3794     0FFA  2FC8               	goto	l1924
  3795     0FFB  3A01               	xorlw	1	; case 11
  3796     0FFC  1903               	skipnz
  3797     0FFD  2FC8               	goto	l1924
  3798     0FFE  2FFF               	goto	l184
  3799     0FFF                     l184:
  3800     0FFF  0008               	return
  3801     1000                     __end_of_set_timer:
  3802                           
  3803                           	psect	text5
  3804     0920                     __ptext5:	
  3805 ;; *************** function _door_status_check *****************
  3806 ;; Defined at:
  3807 ;;		line 508 in file "main.c"
  3808 ;; Parameters:    Size  Location     Type
  3809 ;;		None
  3810 ;; Auto vars:     Size  Location     Type
  3811 ;;		None
  3812 ;; Return value:  Size  Location     Type
  3813 ;;                  1    wreg      void 
  3814 ;; Registers used:
  3815 ;;		wreg, fsr0l, fsr0h, status,2, status,0, btemp+1, pclath, cstack
  3816 ;; Tracked objects:
  3817 ;;		On entry : 0/0
  3818 ;;		On exit  : 0/0
  3819 ;;		Unchanged: 0/0
  3820 ;; Data sizes:     COMMON   BANK0   BANK1   BANK3   BANK2
  3821 ;;      Params:         0       0       0       0       0
  3822 ;;      Locals:         0       0       0       0       0
  3823 ;;      Temps:          0       0       0       0       0
  3824 ;;      Totals:         0       0       0       0       0
  3825 ;;Total ram usage:        0 bytes
  3826 ;; Hardware stack levels used: 1
  3827 ;; Hardware stack levels required when called: 3
  3828 ;; This function calls:
  3829 ;;		_clcd_clear
  3830 ;;		_clcd_print
  3831 ;; This function is called by:
  3832 ;;		_run_program
  3833 ;; This function uses a non-reentrant model
  3834 ;;
  3835                           
  3836     0920                     _door_status_check:	
  3837                           ;psect for function _door_status_check
  3838                           
  3839     0920                     l2706:	
  3840                           ;incstack = 0
  3841                           ; Regs used in _door_status_check: [wreg-fsr0h+status,2+status,0+btemp+1+pclath+cstack]
  3842                           
  3843                           
  3844                           ;main.c: 510:         RC2 = 1;
  3845     0920  1283               	bcf	3,5	;RP0=0, select bank0
  3846     0921  1303               	bcf	3,6	;RP1=0, select bank0
  3847     0922  1806               	btfsc	6,0	;volatile
  3848     0923  2925               	goto	u2911
  3849     0924  2926               	goto	u2910
  3850     0925                     u2911:
  3851     0925  2975               	goto	l216
  3852     0926                     u2910:
  3853     0926                     l2708:
  3854                           
  3855                           ;main.c: 511:         RC1 = 0;;main.c: 513:     }
  3856     0926  1107               	bcf	7,2	;volatile
  3857                           
  3858                           ;main.c: 514: }
  3859     0927  1112               	bcf	18,2	;volatile
  3860     0928  1487               	bsf	7,1	;volatile
  3861     0929                     l2710:
  3862     0929  160A  118A  270C  120A  158A  	fcall	_clcd_clear
  3863     092E                     l2712:
  3864     092E  309E               	movlw	low (STR_43| (0+32768))
  3865     092F  00F6               	movwf	clcd_print@str
  3866     0930  3087               	movlw	high (STR_43| (0+32768))
  3867     0931  00F7               	movwf	clcd_print@str+1
  3868     0932  3080               	movlw	128
  3869     0933  00F8               	movwf	clcd_print@addr
  3870     0934  160A  118A  27D1  120A  158A  	fcall	_clcd_print
  3871     0939                     l2714:
  3872     0939  306C               	movlw	low (STR_44| (0+32768))
  3873     093A  00F6               	movwf	clcd_print@str
  3874     093B  3087               	movlw	high (STR_44| (0+32768))
  3875     093C  00F7               	movwf	clcd_print@str+1
  3876     093D  30C0               	movlw	192
  3877     093E  00F8               	movwf	clcd_print@addr
  3878     093F  160A  118A  27D1  120A  158A  	fcall	_clcd_print
  3879     0944                     l213:
  3880     0944  1283               	bcf	3,5	;RP0=0, select bank0
  3881     0945  1303               	bcf	3,6	;RP1=0, select bank0
  3882     0946  1C06               	btfss	6,0	;volatile
  3883     0947  2949               	goto	u2921
  3884     0948  294A               	goto	u2920
  3885     0949                     u2921:
  3886     0949  2944               	goto	l213
  3887     094A                     u2920:
  3888     094A                     l2716:
  3889     094A  160A  118A  270C  120A  158A  	fcall	_clcd_clear
  3890     094F                     l2718:
  3891     094F  3086               	movlw	low (STR_31| (0+32768))
  3892     0950  00F6               	movwf	clcd_print@str
  3893     0951  3087               	movlw	high (STR_31| (0+32768))
  3894     0952  00F7               	movwf	clcd_print@str+1
  3895     0953  3080               	movlw	128
  3896     0954  00F8               	movwf	clcd_print@addr
  3897     0955  160A  118A  27D1  120A  158A  	fcall	_clcd_print
  3898     095A                     l2720:
  3899     095A  302A               	movlw	low (STR_32| (0+32768))
  3900     095B  00F6               	movwf	clcd_print@str
  3901     095C  3088               	movlw	high (STR_32| (0+32768))
  3902     095D  00F7               	movwf	clcd_print@str+1
  3903     095E  30C0               	movlw	192
  3904     095F  00F8               	movwf	clcd_print@addr
  3905     0960  160A  118A  27D1  120A  158A  	fcall	_clcd_print
  3906     0965                     l2722:
  3907     0965  3000               	movlw	low (STR_33| (0+32768))
  3908     0966  00F6               	movwf	clcd_print@str
  3909     0967  3087               	movlw	high (STR_33| (0+32768))
  3910     0968  00F7               	movwf	clcd_print@str+1
  3911     0969  30D0               	movlw	208
  3912     096A  00F8               	movwf	clcd_print@addr
  3913     096B  160A  118A  27D1  120A  158A  	fcall	_clcd_print
  3914     0970                     l2724:
  3915     0970  1283               	bcf	3,5	;RP0=0, select bank0
  3916     0971  1303               	bcf	3,6	;RP1=0, select bank0
  3917     0972  1507               	bsf	7,2	;volatile
  3918     0973                     l2726:
  3919     0973  1087               	bcf	7,1	;volatile
  3920     0974                     l2728:
  3921     0974  1512               	bsf	18,2	;volatile
  3922     0975                     l216:
  3923     0975  0008               	return
  3924     0976                     __end_of_door_status_check:
  3925                           
  3926                           	psect	text6
  3927     0B68                     __ptext6:	
  3928 ;; *************** function ___xxtofl *****************
  3929 ;; Defined at:
  3930 ;;		line 10 in file "E:\6th sem softwares\MPLAB V5\XCM\pic\sources\c99\common\xxtofl.c"
  3931 ;; Parameters:    Size  Location     Type
  3932 ;;  sign            1    wreg     unsigned char 
  3933 ;;  val             4    2[COMMON] long 
  3934 ;; Auto vars:     Size  Location     Type
  3935 ;;  sign            1    0[BANK0 ] unsigned char 
  3936 ;;  arg             4    2[BANK0 ] unsigned long 
  3937 ;;  exp             1    1[BANK0 ] unsigned char 
  3938 ;; Return value:  Size  Location     Type
  3939 ;;                  4    2[COMMON] unsigned char 
  3940 ;; Registers used:
  3941 ;;		wreg, status,2, status,0, btemp+1
  3942 ;; Tracked objects:
  3943 ;;		On entry : 0/0
  3944 ;;		On exit  : 0/0
  3945 ;;		Unchanged: 0/0
  3946 ;; Data sizes:     COMMON   BANK0   BANK1   BANK3   BANK2
  3947 ;;      Params:         4       0       0       0       0
  3948 ;;      Locals:         0       6       0       0       0
  3949 ;;      Temps:          4       0       0       0       0
  3950 ;;      Totals:         8       6       0       0       0
  3951 ;;Total ram usage:       14 bytes
  3952 ;; Hardware stack levels used: 1
  3953 ;; Hardware stack levels required when called: 1
  3954 ;; This function calls:
  3955 ;;		Nothing
  3956 ;; This function is called by:
  3957 ;;		_run_program
  3958 ;; This function uses a non-reentrant model
  3959 ;;
  3960                           
  3961     0B68                     ___xxtofl:	
  3962                           ;psect for function ___xxtofl
  3963                           
  3964                           
  3965                           ;incstack = 0
  3966                           ; Regs used in ___xxtofl: [wreg+status,2+status,0+btemp+1]
  3967                           ;___xxtofl@sign stored from wreg
  3968     0B68  1283               	bcf	3,5	;RP0=0, select bank0
  3969     0B69  1303               	bcf	3,6	;RP1=0, select bank0
  3970     0B6A  00A0               	movwf	___xxtofl@sign
  3971     0B6B                     l2230:
  3972     0B6B  0820               	movf	___xxtofl@sign,w
  3973     0B6C  1903               	btfsc	3,2
  3974     0B6D  2B6F               	goto	u2211
  3975     0B6E  2B70               	goto	u2210
  3976     0B6F                     u2211:
  3977     0B6F  2B84               	goto	l2236
  3978     0B70                     u2210:
  3979     0B70                     l2232:
  3980     0B70  1FF5               	btfss	___xxtofl@val+3,7
  3981     0B71  2B73               	goto	u2221
  3982     0B72  2B74               	goto	u2220
  3983     0B73                     u2221:
  3984     0B73  2B84               	goto	l2236
  3985     0B74                     u2220:
  3986     0B74                     l2234:
  3987     0B74  0972               	comf	___xxtofl@val,w
  3988     0B75  00A2               	movwf	___xxtofl@arg
  3989     0B76  0973               	comf	___xxtofl@val+1,w
  3990     0B77  00A3               	movwf	___xxtofl@arg+1
  3991     0B78  0974               	comf	___xxtofl@val+2,w
  3992     0B79  00A4               	movwf	___xxtofl@arg+2
  3993     0B7A  0975               	comf	___xxtofl@val+3,w
  3994     0B7B  00A5               	movwf	___xxtofl@arg+3
  3995     0B7C  0AA2               	incf	___xxtofl@arg,f
  3996     0B7D  1903               	skipnz
  3997     0B7E  0AA3               	incf	___xxtofl@arg+1,f
  3998     0B7F  1903               	skipnz
  3999     0B80  0AA4               	incf	___xxtofl@arg+2,f
  4000     0B81  1903               	skipnz
  4001     0B82  0AA5               	incf	___xxtofl@arg+3,f
  4002     0B83  2B8C               	goto	l833
  4003     0B84                     l2236:
  4004     0B84  0875               	movf	___xxtofl@val+3,w
  4005     0B85  00A5               	movwf	___xxtofl@arg+3
  4006     0B86  0874               	movf	___xxtofl@val+2,w
  4007     0B87  00A4               	movwf	___xxtofl@arg+2
  4008     0B88  0873               	movf	___xxtofl@val+1,w
  4009     0B89  00A3               	movwf	___xxtofl@arg+1
  4010     0B8A  0872               	movf	___xxtofl@val,w
  4011     0B8B  00A2               	movwf	___xxtofl@arg
  4012     0B8C                     l833:
  4013     0B8C  0875               	movf	___xxtofl@val+3,w
  4014     0B8D  0474               	iorwf	___xxtofl@val+2,w
  4015     0B8E  0473               	iorwf	___xxtofl@val+1,w
  4016     0B8F  0472               	iorwf	___xxtofl@val,w
  4017     0B90  1D03               	skipz
  4018     0B91  2B93               	goto	u2231
  4019     0B92  2B94               	goto	u2230
  4020     0B93                     u2231:
  4021     0B93  2B9D               	goto	l2242
  4022     0B94                     u2230:
  4023     0B94                     l2238:
  4024     0B94  3000               	movlw	0
  4025     0B95  00F5               	movwf	?___xxtofl+3
  4026     0B96  3000               	movlw	0
  4027     0B97  00F4               	movwf	?___xxtofl+2
  4028     0B98  3000               	movlw	0
  4029     0B99  00F3               	movwf	?___xxtofl+1
  4030     0B9A  3000               	movlw	0
  4031     0B9B  00F2               	movwf	?___xxtofl
  4032     0B9C  2C21               	goto	l835
  4033     0B9D                     l2242:
  4034     0B9D  3096               	movlw	150
  4035     0B9E  00A1               	movwf	___xxtofl@exp
  4036     0B9F  2BAD               	goto	l2248
  4037     0BA0                     l2244:
  4038     0BA0  3001               	movlw	1
  4039     0BA1  00FF               	movwf	btemp+1
  4040     0BA2  087F               	movf	btemp+1,w
  4041     0BA3  07A1               	addwf	___xxtofl@exp,f
  4042     0BA4                     l2246:
  4043     0BA4  3001               	movlw	1
  4044     0BA5                     u2245:
  4045     0BA5  1003               	clrc
  4046     0BA6  0CA5               	rrf	___xxtofl@arg+3,f
  4047     0BA7  0CA4               	rrf	___xxtofl@arg+2,f
  4048     0BA8  0CA3               	rrf	___xxtofl@arg+1,f
  4049     0BA9  0CA2               	rrf	___xxtofl@arg,f
  4050     0BAA  3EFF               	addlw	-1
  4051     0BAB  1D03               	skipz
  4052     0BAC  2BA5               	goto	u2245
  4053     0BAD                     l2248:
  4054     0BAD  30FE               	movlw	254
  4055     0BAE  0525               	andwf	___xxtofl@arg+3,w
  4056     0BAF  1D03               	btfss	3,2
  4057     0BB0  2BB2               	goto	u2251
  4058     0BB1  2BB3               	goto	u2250
  4059     0BB2                     u2251:
  4060     0BB2  2BA0               	goto	l2244
  4061     0BB3                     u2250:
  4062     0BB3  2BCF               	goto	l2256
  4063     0BB4                     l2250:
  4064     0BB4  3001               	movlw	1
  4065     0BB5  00FF               	movwf	btemp+1
  4066     0BB6  087F               	movf	btemp+1,w
  4067     0BB7  07A1               	addwf	___xxtofl@exp,f
  4068     0BB8                     l2252:
  4069     0BB8  3001               	movlw	1
  4070     0BB9  07A2               	addwf	___xxtofl@arg,f
  4071     0BBA  3000               	movlw	0
  4072     0BBB  1803               	skipnc
  4073     0BBC  3001               	movlw	1
  4074     0BBD  07A3               	addwf	___xxtofl@arg+1,f
  4075     0BBE  3000               	movlw	0
  4076     0BBF  1803               	skipnc
  4077     0BC0  3001               	movlw	1
  4078     0BC1  07A4               	addwf	___xxtofl@arg+2,f
  4079     0BC2  3000               	movlw	0
  4080     0BC3  1803               	skipnc
  4081     0BC4  3001               	movlw	1
  4082     0BC5  07A5               	addwf	___xxtofl@arg+3,f
  4083     0BC6                     l2254:
  4084     0BC6  3001               	movlw	1
  4085     0BC7                     u2265:
  4086     0BC7  1003               	clrc
  4087     0BC8  0CA5               	rrf	___xxtofl@arg+3,f
  4088     0BC9  0CA4               	rrf	___xxtofl@arg+2,f
  4089     0BCA  0CA3               	rrf	___xxtofl@arg+1,f
  4090     0BCB  0CA2               	rrf	___xxtofl@arg,f
  4091     0BCC  3EFF               	addlw	-1
  4092     0BCD  1D03               	skipz
  4093     0BCE  2BC7               	goto	u2265
  4094     0BCF                     l2256:
  4095     0BCF  30FF               	movlw	255
  4096     0BD0  0525               	andwf	___xxtofl@arg+3,w
  4097     0BD1  1D03               	btfss	3,2
  4098     0BD2  2BD4               	goto	u2271
  4099     0BD3  2BD5               	goto	u2270
  4100     0BD4                     u2271:
  4101     0BD4  2BB4               	goto	l2250
  4102     0BD5                     u2270:
  4103     0BD5  2BE1               	goto	l2260
  4104     0BD6                     l2258:
  4105     0BD6  3001               	movlw	1
  4106     0BD7  02A1               	subwf	___xxtofl@exp,f
  4107     0BD8  3001               	movlw	1
  4108     0BD9  00F6               	movwf	??___xxtofl
  4109     0BDA                     u2285:
  4110     0BDA  1003               	clrc
  4111     0BDB  0DA2               	rlf	___xxtofl@arg,f
  4112     0BDC  0DA3               	rlf	___xxtofl@arg+1,f
  4113     0BDD  0DA4               	rlf	___xxtofl@arg+2,f
  4114     0BDE  0DA5               	rlf	___xxtofl@arg+3,f
  4115     0BDF  0BF6               	decfsz	??___xxtofl,f
  4116     0BE0  2BDA               	goto	u2285
  4117     0BE1                     l2260:
  4118     0BE1  1BA4               	btfsc	___xxtofl@arg+2,7
  4119     0BE2  2BE4               	goto	u2291
  4120     0BE3  2BE5               	goto	u2290
  4121     0BE4                     u2291:
  4122     0BE4  2BEB               	goto	l846
  4123     0BE5                     u2290:
  4124     0BE5                     l2262:
  4125     0BE5  3002               	movlw	2
  4126     0BE6  0221               	subwf	___xxtofl@exp,w
  4127     0BE7  1803               	skipnc
  4128     0BE8  2BEA               	goto	u2301
  4129     0BE9  2BEB               	goto	u2300
  4130     0BEA                     u2301:
  4131     0BEA  2BD6               	goto	l2258
  4132     0BEB                     u2300:
  4133     0BEB                     l846:
  4134     0BEB  1821               	btfsc	___xxtofl@exp,0
  4135     0BEC  2BEE               	goto	u2311
  4136     0BED  2BEF               	goto	u2310
  4137     0BEE                     u2311:
  4138     0BEE  2BF7               	goto	l847
  4139     0BEF                     u2310:
  4140     0BEF                     l2264:
  4141     0BEF  30FF               	movlw	255
  4142     0BF0  05A2               	andwf	___xxtofl@arg,f
  4143     0BF1  30FF               	movlw	255
  4144     0BF2  05A3               	andwf	___xxtofl@arg+1,f
  4145     0BF3  307F               	movlw	127
  4146     0BF4  05A4               	andwf	___xxtofl@arg+2,f
  4147     0BF5  30FF               	movlw	255
  4148     0BF6  05A5               	andwf	___xxtofl@arg+3,f
  4149     0BF7                     l847:
  4150     0BF7  1003               	clrc
  4151     0BF8  0CA1               	rrf	___xxtofl@exp,f
  4152     0BF9                     l2266:
  4153     0BF9  0821               	movf	___xxtofl@exp,w
  4154     0BFA  00F6               	movwf	??___xxtofl
  4155     0BFB  01F7               	clrf	??___xxtofl+1
  4156     0BFC  01F8               	clrf	??___xxtofl+2
  4157     0BFD  01F9               	clrf	??___xxtofl+3
  4158     0BFE  3018               	movlw	24
  4159     0BFF                     u2325:
  4160     0BFF  1003               	clrc
  4161     0C00  0DF6               	rlf	??___xxtofl,f
  4162     0C01  0DF7               	rlf	??___xxtofl+1,f
  4163     0C02  0DF8               	rlf	??___xxtofl+2,f
  4164     0C03  0DF9               	rlf	??___xxtofl+3,f
  4165     0C04                     u2320:
  4166     0C04  3EFF               	addlw	-1
  4167     0C05  1D03               	skipz
  4168     0C06  2BFF               	goto	u2325
  4169     0C07  0876               	movf	??___xxtofl,w
  4170     0C08  04A2               	iorwf	___xxtofl@arg,f
  4171     0C09  0877               	movf	??___xxtofl+1,w
  4172     0C0A  04A3               	iorwf	___xxtofl@arg+1,f
  4173     0C0B  0878               	movf	??___xxtofl+2,w
  4174     0C0C  04A4               	iorwf	___xxtofl@arg+2,f
  4175     0C0D  0879               	movf	??___xxtofl+3,w
  4176     0C0E  04A5               	iorwf	___xxtofl@arg+3,f
  4177     0C0F                     l2268:
  4178     0C0F  0820               	movf	___xxtofl@sign,w
  4179     0C10  1903               	btfsc	3,2
  4180     0C11  2C13               	goto	u2331
  4181     0C12  2C14               	goto	u2330
  4182     0C13                     u2331:
  4183     0C13  2C19               	goto	l2274
  4184     0C14                     u2330:
  4185     0C14                     l2270:
  4186     0C14  1FF5               	btfss	___xxtofl@val+3,7
  4187     0C15  2C17               	goto	u2341
  4188     0C16  2C18               	goto	u2340
  4189     0C17                     u2341:
  4190     0C17  2C19               	goto	l2274
  4191     0C18                     u2340:
  4192     0C18                     l2272:
  4193     0C18  17A5               	bsf	___xxtofl@arg+3,7
  4194     0C19                     l2274:
  4195     0C19  0825               	movf	___xxtofl@arg+3,w
  4196     0C1A  00F5               	movwf	?___xxtofl+3
  4197     0C1B  0824               	movf	___xxtofl@arg+2,w
  4198     0C1C  00F4               	movwf	?___xxtofl+2
  4199     0C1D  0823               	movf	___xxtofl@arg+1,w
  4200     0C1E  00F3               	movwf	?___xxtofl+1
  4201     0C1F  0822               	movf	___xxtofl@arg,w
  4202     0C20  00F2               	movwf	?___xxtofl
  4203     0C21                     l835:
  4204     0C21  0008               	return
  4205     0C22                     __end_of___xxtofl:
  4206                           
  4207                           	psect	text7
  4208     1783                     __ptext7:	
  4209 ;; *************** function ___wmul *****************
  4210 ;; Defined at:
  4211 ;;		line 15 in file "E:\6th sem softwares\MPLAB V5\XCM\pic\sources\c99\common\Umul16.c"
  4212 ;; Parameters:    Size  Location     Type
  4213 ;;  multiplier      2    2[COMMON] unsigned int 
  4214 ;;  multiplicand    2    4[COMMON] unsigned int 
  4215 ;; Auto vars:     Size  Location     Type
  4216 ;;  product         2    6[COMMON] unsigned int 
  4217 ;; Return value:  Size  Location     Type
  4218 ;;                  2    2[COMMON] unsigned int 
  4219 ;; Registers used:
  4220 ;;		wreg, status,2, status,0
  4221 ;; Tracked objects:
  4222 ;;		On entry : 0/0
  4223 ;;		On exit  : 0/0
  4224 ;;		Unchanged: 0/0
  4225 ;; Data sizes:     COMMON   BANK0   BANK1   BANK3   BANK2
  4226 ;;      Params:         4       0       0       0       0
  4227 ;;      Locals:         2       0       0       0       0
  4228 ;;      Temps:          0       0       0       0       0
  4229 ;;      Totals:         6       0       0       0       0
  4230 ;;Total ram usage:        6 bytes
  4231 ;; Hardware stack levels used: 1
  4232 ;; Hardware stack levels required when called: 1
  4233 ;; This function calls:
  4234 ;;		Nothing
  4235 ;; This function is called by:
  4236 ;;		_run_program
  4237 ;; This function uses a non-reentrant model
  4238 ;;
  4239                           
  4240     1783                     ___wmul:	
  4241                           ;psect for function ___wmul
  4242                           
  4243     1783                     l1954:	
  4244                           ;incstack = 0
  4245                           ; Regs used in ___wmul: [wreg+status,2+status,0]
  4246                           
  4247     1783  01F6               	clrf	___wmul@product
  4248     1784  01F7               	clrf	___wmul@product+1
  4249     1785                     l1956:
  4250     1785  1C72               	btfss	___wmul@multiplier,0
  4251     1786  2F88               	goto	u1511
  4252     1787  2F89               	goto	u1510
  4253     1788                     u1511:
  4254     1788  2F8F               	goto	l392
  4255     1789                     u1510:
  4256     1789                     l1958:
  4257     1789  0874               	movf	___wmul@multiplicand,w
  4258     178A  07F6               	addwf	___wmul@product,f
  4259     178B  1803               	skipnc
  4260     178C  0AF7               	incf	___wmul@product+1,f
  4261     178D  0875               	movf	___wmul@multiplicand+1,w
  4262     178E  07F7               	addwf	___wmul@product+1,f
  4263     178F                     l392:
  4264     178F  3001               	movlw	1
  4265     1790                     u1525:
  4266     1790  1003               	clrc
  4267     1791  0DF4               	rlf	___wmul@multiplicand,f
  4268     1792  0DF5               	rlf	___wmul@multiplicand+1,f
  4269     1793  3EFF               	addlw	-1
  4270     1794  1D03               	skipz
  4271     1795  2F90               	goto	u1525
  4272     1796                     l1960:
  4273     1796  3001               	movlw	1
  4274     1797                     u1535:
  4275     1797  1003               	clrc
  4276     1798  0CF3               	rrf	___wmul@multiplier+1,f
  4277     1799  0CF2               	rrf	___wmul@multiplier,f
  4278     179A  3EFF               	addlw	-1
  4279     179B  1D03               	skipz
  4280     179C  2F97               	goto	u1535
  4281     179D                     l1962:
  4282     179D  0872               	movf	___wmul@multiplier,w
  4283     179E  0473               	iorwf	___wmul@multiplier+1,w
  4284     179F  1D03               	btfss	3,2
  4285     17A0  2FA2               	goto	u1541
  4286     17A1  2FA3               	goto	u1540
  4287     17A2                     u1541:
  4288     17A2  2F85               	goto	l1956
  4289     17A3                     u1540:
  4290     17A3                     l1964:
  4291     17A3  0877               	movf	___wmul@product+1,w
  4292     17A4  00F3               	movwf	?___wmul+1
  4293     17A5  0876               	movf	___wmul@product,w
  4294     17A6  00F2               	movwf	?___wmul
  4295     17A7                     l394:
  4296     17A7  0008               	return
  4297     17A8                     __end_of___wmul:
  4298                           
  4299                           	psect	text8
  4300     0AF0                     __ptext8:	
  4301 ;; *************** function ___fltol *****************
  4302 ;; Defined at:
  4303 ;;		line 43 in file "E:\6th sem softwares\MPLAB V5\XCM\pic\sources\c99\common\fltol.c"
  4304 ;; Parameters:    Size  Location     Type
  4305 ;;  f1              4   32[BANK0 ] unsigned int 
  4306 ;; Auto vars:     Size  Location     Type
  4307 ;;  exp1            1   41[BANK0 ] unsigned char 
  4308 ;;  sign1           1   40[BANK0 ] unsigned char 
  4309 ;; Return value:  Size  Location     Type
  4310 ;;                  4   32[BANK0 ] long 
  4311 ;; Registers used:
  4312 ;;		wreg, status,2, status,0, btemp+1
  4313 ;; Tracked objects:
  4314 ;;		On entry : 0/0
  4315 ;;		On exit  : 0/0
  4316 ;;		Unchanged: 0/0
  4317 ;; Data sizes:     COMMON   BANK0   BANK1   BANK3   BANK2
  4318 ;;      Params:         0       4       0       0       0
  4319 ;;      Locals:         0       2       0       0       0
  4320 ;;      Temps:          0       4       0       0       0
  4321 ;;      Totals:         0      10       0       0       0
  4322 ;;Total ram usage:       10 bytes
  4323 ;; Hardware stack levels used: 1
  4324 ;; Hardware stack levels required when called: 1
  4325 ;; This function calls:
  4326 ;;		Nothing
  4327 ;; This function is called by:
  4328 ;;		_run_program
  4329 ;; This function uses a non-reentrant model
  4330 ;;
  4331                           
  4332     0AF0                     ___fltol:	
  4333                           ;psect for function ___fltol
  4334                           
  4335     0AF0                     l2050:	
  4336                           ;incstack = 0
  4337                           ; Regs used in ___fltol: [wreg+status,2+status,0+btemp+1]
  4338                           
  4339     0AF0  1003               	clrc
  4340     0AF1  1283               	bcf	3,5	;RP0=0, select bank0
  4341     0AF2  1303               	bcf	3,6	;RP1=0, select bank0
  4342     0AF3  0D42               	rlf	___fltol@f1+2,w
  4343     0AF4  0D43               	rlf	___fltol@f1+3,w
  4344     0AF5  00C9               	movwf	___fltol@exp1
  4345     0AF6  0849               	movf	___fltol@exp1,w
  4346     0AF7  1D03               	btfss	3,2
  4347     0AF8  2AFA               	goto	u1741
  4348     0AF9  2AFB               	goto	u1740
  4349     0AFA                     u1741:
  4350     0AFA  2B04               	goto	l2056
  4351     0AFB                     u1740:
  4352     0AFB                     l2052:
  4353     0AFB  3000               	movlw	0
  4354     0AFC  00C3               	movwf	?___fltol+3
  4355     0AFD  3000               	movlw	0
  4356     0AFE  00C2               	movwf	?___fltol+2
  4357     0AFF  3000               	movlw	0
  4358     0B00  00C1               	movwf	?___fltol+1
  4359     0B01  3000               	movlw	0
  4360     0B02  00C0               	movwf	?___fltol
  4361     0B03  2B67               	goto	l586
  4362     0B04                     l2056:
  4363     0B04  0840               	movf	___fltol@f1,w
  4364     0B05  00C4               	movwf	??___fltol
  4365     0B06  0841               	movf	___fltol@f1+1,w
  4366     0B07  00C5               	movwf	??___fltol+1
  4367     0B08  0842               	movf	___fltol@f1+2,w
  4368     0B09  00C6               	movwf	??___fltol+2
  4369     0B0A  0843               	movf	___fltol@f1+3,w
  4370     0B0B  00C7               	movwf	??___fltol+3
  4371     0B0C  301F               	movlw	31
  4372     0B0D                     u1755:
  4373     0B0D  1003               	clrc
  4374     0B0E  0CC7               	rrf	??___fltol+3,f
  4375     0B0F  0CC6               	rrf	??___fltol+2,f
  4376     0B10  0CC5               	rrf	??___fltol+1,f
  4377     0B11  0CC4               	rrf	??___fltol,f
  4378     0B12                     u1750:
  4379     0B12  3EFF               	addlw	-1
  4380     0B13  1D03               	skipz
  4381     0B14  2B0D               	goto	u1755
  4382     0B15  0844               	movf	??___fltol,w
  4383     0B16  00C8               	movwf	___fltol@sign1
  4384     0B17                     l2058:
  4385     0B17  17C2               	bsf	___fltol@f1+2,7
  4386     0B18                     l2060:
  4387     0B18  30FF               	movlw	255
  4388     0B19  05C0               	andwf	___fltol@f1,f
  4389     0B1A  30FF               	movlw	255
  4390     0B1B  05C1               	andwf	___fltol@f1+1,f
  4391     0B1C  30FF               	movlw	255
  4392     0B1D  05C2               	andwf	___fltol@f1+2,f
  4393     0B1E  3000               	movlw	0
  4394     0B1F  05C3               	andwf	___fltol@f1+3,f
  4395     0B20                     l2062:
  4396     0B20  3096               	movlw	150
  4397     0B21  02C9               	subwf	___fltol@exp1,f
  4398     0B22                     l2064:
  4399     0B22  1FC9               	btfss	___fltol@exp1,7
  4400     0B23  2B25               	goto	u1761
  4401     0B24  2B26               	goto	u1760
  4402     0B25                     u1761:
  4403     0B25  2B40               	goto	l2076
  4404     0B26                     u1760:
  4405     0B26                     l2066:
  4406     0B26  0849               	movf	___fltol@exp1,w
  4407     0B27  3A80               	xorlw	128
  4408     0B28  3E97               	addlw	151
  4409     0B29  1803               	skipnc
  4410     0B2A  2B2C               	goto	u1771
  4411     0B2B  2B2D               	goto	u1770
  4412     0B2C                     u1771:
  4413     0B2C  2B2E               	goto	l2072
  4414     0B2D                     u1770:
  4415     0B2D  2AFB               	goto	l2052
  4416     0B2E                     l2072:
  4417     0B2E  3001               	movlw	1
  4418     0B2F                     u1785:
  4419     0B2F  1003               	clrc
  4420     0B30  0CC3               	rrf	___fltol@f1+3,f
  4421     0B31  0CC2               	rrf	___fltol@f1+2,f
  4422     0B32  0CC1               	rrf	___fltol@f1+1,f
  4423     0B33  0CC0               	rrf	___fltol@f1,f
  4424     0B34  3EFF               	addlw	-1
  4425     0B35  1D03               	skipz
  4426     0B36  2B2F               	goto	u1785
  4427     0B37                     l2074:
  4428     0B37  3001               	movlw	1
  4429     0B38  00FF               	movwf	btemp+1
  4430     0B39  087F               	movf	btemp+1,w
  4431     0B3A  07C9               	addwf	___fltol@exp1,f
  4432     0B3B  1D03               	btfss	3,2
  4433     0B3C  2B3E               	goto	u1791
  4434     0B3D  2B3F               	goto	u1790
  4435     0B3E                     u1791:
  4436     0B3E  2B2E               	goto	l2072
  4437     0B3F                     u1790:
  4438     0B3F  2B57               	goto	l2084
  4439     0B40                     l2076:
  4440     0B40  3020               	movlw	32
  4441     0B41  0249               	subwf	___fltol@exp1,w
  4442     0B42  1C03               	skipc
  4443     0B43  2B45               	goto	u1801
  4444     0B44  2B46               	goto	u1800
  4445     0B45                     u1801:
  4446     0B45  2B52               	goto	l593
  4447     0B46                     u1800:
  4448     0B46  2AFB               	goto	l2052
  4449     0B47                     l2082:
  4450     0B47  3001               	movlw	1
  4451     0B48  00C4               	movwf	??___fltol
  4452     0B49                     u1815:
  4453     0B49  1003               	clrc
  4454     0B4A  0DC0               	rlf	___fltol@f1,f
  4455     0B4B  0DC1               	rlf	___fltol@f1+1,f
  4456     0B4C  0DC2               	rlf	___fltol@f1+2,f
  4457     0B4D  0DC3               	rlf	___fltol@f1+3,f
  4458     0B4E  0BC4               	decfsz	??___fltol,f
  4459     0B4F  2B49               	goto	u1815
  4460     0B50  3001               	movlw	1
  4461     0B51  02C9               	subwf	___fltol@exp1,f
  4462     0B52                     l593:
  4463     0B52  0849               	movf	___fltol@exp1,w
  4464     0B53  1D03               	btfss	3,2
  4465     0B54  2B56               	goto	u1821
  4466     0B55  2B57               	goto	u1820
  4467     0B56                     u1821:
  4468     0B56  2B47               	goto	l2082
  4469     0B57                     u1820:
  4470     0B57                     l2084:
  4471     0B57  0848               	movf	___fltol@sign1,w
  4472     0B58  1903               	btfsc	3,2
  4473     0B59  2B5B               	goto	u1831
  4474     0B5A  2B5C               	goto	u1830
  4475     0B5B                     u1831:
  4476     0B5B  2B67               	goto	l596
  4477     0B5C                     u1830:
  4478     0B5C                     l2086:
  4479     0B5C  09C0               	comf	___fltol@f1,f
  4480     0B5D  09C1               	comf	___fltol@f1+1,f
  4481     0B5E  09C2               	comf	___fltol@f1+2,f
  4482     0B5F  09C3               	comf	___fltol@f1+3,f
  4483     0B60  0AC0               	incf	___fltol@f1,f
  4484     0B61  1903               	skipnz
  4485     0B62  0AC1               	incf	___fltol@f1+1,f
  4486     0B63  1903               	skipnz
  4487     0B64  0AC2               	incf	___fltol@f1+2,f
  4488     0B65  1903               	skipnz
  4489     0B66  0AC3               	incf	___fltol@f1+3,f
  4490     0B67                     l596:
  4491     0B67                     l586:
  4492     0B67  0008               	return
  4493     0B68                     __end_of___fltol:
  4494                           
  4495                           	psect	text9
  4496     03B7                     __ptext9:	
  4497 ;; *************** function ___flmul *****************
  4498 ;; Defined at:
  4499 ;;		line 8 in file "E:\6th sem softwares\MPLAB V5\XCM\pic\sources\c99\common\sprcmul.c"
  4500 ;; Parameters:    Size  Location     Type
  4501 ;;  b               4    6[BANK0 ] long 
  4502 ;;  a               4   10[BANK0 ] long 
  4503 ;; Auto vars:     Size  Location     Type
  4504 ;;  prod            4   26[BANK0 ] struct .
  4505 ;;  grs             4   21[BANK0 ] unsigned long 
  4506 ;;  temp            2   30[BANK0 ] struct .
  4507 ;;  bexp            1   25[BANK0 ] unsigned char 
  4508 ;;  aexp            1   20[BANK0 ] unsigned char 
  4509 ;;  sign            1   19[BANK0 ] unsigned char 
  4510 ;; Return value:  Size  Location     Type
  4511 ;;                  4    6[BANK0 ] unsigned char 
  4512 ;; Registers used:
  4513 ;;		wreg, status,2, status,0, btemp+1, pclath, cstack
  4514 ;; Tracked objects:
  4515 ;;		On entry : 0/0
  4516 ;;		On exit  : 0/0
  4517 ;;		Unchanged: 0/0
  4518 ;; Data sizes:     COMMON   BANK0   BANK1   BANK3   BANK2
  4519 ;;      Params:         0       8       0       0       0
  4520 ;;      Locals:         0      13       0       0       0
  4521 ;;      Temps:          0       5       0       0       0
  4522 ;;      Totals:         0      26       0       0       0
  4523 ;;Total ram usage:       26 bytes
  4524 ;; Hardware stack levels used: 1
  4525 ;; Hardware stack levels required when called: 2
  4526 ;; This function calls:
  4527 ;;		__Umul8_16
  4528 ;; This function is called by:
  4529 ;;		_run_program
  4530 ;; This function uses a non-reentrant model
  4531 ;;
  4532                           
  4533     03B7                     ___flmul:	
  4534                           ;psect for function ___flmul
  4535                           
  4536     03B7                     l2730:	
  4537                           ;incstack = 0
  4538                           ; Regs used in ___flmul: [wreg+status,2+status,0+btemp+1+pclath+cstack]
  4539                           
  4540     03B7  1283               	bcf	3,5	;RP0=0, select bank0
  4541     03B8  1303               	bcf	3,6	;RP1=0, select bank0
  4542     03B9  0829               	movf	___flmul@b+3,w
  4543     03BA  3980               	andlw	128
  4544     03BB  00B3               	movwf	___flmul@sign
  4545     03BC                     l2732:
  4546     03BC  0829               	movf	___flmul@b+3,w
  4547     03BD  00AE               	movwf	??___flmul
  4548     03BE  072E               	addwf	??___flmul,w
  4549     03BF  00B9               	movwf	___flmul@bexp
  4550     03C0                     l2734:
  4551     03C0  1FA8               	btfss	___flmul@b+2,7
  4552     03C1  2BC3               	goto	u2931
  4553     03C2  2BC4               	goto	u2930
  4554     03C3                     u2931:
  4555     03C3  2BC5               	goto	l2738
  4556     03C4                     u2930:
  4557     03C4                     l2736:
  4558     03C4  1439               	bsf	___flmul@bexp,0
  4559     03C5                     l2738:
  4560     03C5  0839               	movf	___flmul@bexp,w
  4561     03C6  1903               	btfsc	3,2
  4562     03C7  2BC9               	goto	u2941
  4563     03C8  2BCA               	goto	u2940
  4564     03C9                     u2941:
  4565     03C9  2BD9               	goto	l2746
  4566     03CA                     u2940:
  4567     03CA                     l2740:
  4568     03CA  0A39               	incf	___flmul@bexp,w
  4569     03CB  1D03               	btfss	3,2
  4570     03CC  2BCE               	goto	u2951
  4571     03CD  2BCF               	goto	u2950
  4572     03CE                     u2951:
  4573     03CE  2BD7               	goto	l2744
  4574     03CF                     u2950:
  4575     03CF                     l2742:
  4576     03CF  3000               	movlw	0
  4577     03D0  00A9               	movwf	___flmul@b+3
  4578     03D1  3000               	movlw	0
  4579     03D2  00A8               	movwf	___flmul@b+2
  4580     03D3  3000               	movlw	0
  4581     03D4  00A7               	movwf	___flmul@b+1
  4582     03D5  3000               	movlw	0
  4583     03D6  00A6               	movwf	___flmul@b
  4584     03D7                     l2744:
  4585     03D7  17A8               	bsf	___flmul@b+2,7
  4586     03D8  2BE1               	goto	l2748
  4587     03D9                     l2746:
  4588     03D9  3000               	movlw	0
  4589     03DA  00A9               	movwf	___flmul@b+3
  4590     03DB  3000               	movlw	0
  4591     03DC  00A8               	movwf	___flmul@b+2
  4592     03DD  3000               	movlw	0
  4593     03DE  00A7               	movwf	___flmul@b+1
  4594     03DF  3000               	movlw	0
  4595     03E0  00A6               	movwf	___flmul@b
  4596     03E1                     l2748:
  4597     03E1  082D               	movf	___flmul@a+3,w
  4598     03E2  3980               	andlw	128
  4599     03E3  00FF               	movwf	btemp+1
  4600     03E4  087F               	movf	btemp+1,w
  4601     03E5  06B3               	xorwf	___flmul@sign,f
  4602     03E6                     l2750:
  4603     03E6  082D               	movf	___flmul@a+3,w
  4604     03E7  00AE               	movwf	??___flmul
  4605     03E8  072E               	addwf	??___flmul,w
  4606     03E9  00B4               	movwf	___flmul@aexp
  4607     03EA                     l2752:
  4608     03EA  1FAC               	btfss	___flmul@a+2,7
  4609     03EB  2BED               	goto	u2961
  4610     03EC  2BEE               	goto	u2960
  4611     03ED                     u2961:
  4612     03ED  2BEF               	goto	l2756
  4613     03EE                     u2960:
  4614     03EE                     l2754:
  4615     03EE  1434               	bsf	___flmul@aexp,0
  4616     03EF                     l2756:
  4617     03EF  0834               	movf	___flmul@aexp,w
  4618     03F0  1903               	btfsc	3,2
  4619     03F1  2BF3               	goto	u2971
  4620     03F2  2BF4               	goto	u2970
  4621     03F3                     u2971:
  4622     03F3  2C03               	goto	l2764
  4623     03F4                     u2970:
  4624     03F4                     l2758:
  4625     03F4  0A34               	incf	___flmul@aexp,w
  4626     03F5  1D03               	btfss	3,2
  4627     03F6  2BF8               	goto	u2981
  4628     03F7  2BF9               	goto	u2980
  4629     03F8                     u2981:
  4630     03F8  2C01               	goto	l2762
  4631     03F9                     u2980:
  4632     03F9                     l2760:
  4633     03F9  3000               	movlw	0
  4634     03FA  00AD               	movwf	___flmul@a+3
  4635     03FB  3000               	movlw	0
  4636     03FC  00AC               	movwf	___flmul@a+2
  4637     03FD  3000               	movlw	0
  4638     03FE  00AB               	movwf	___flmul@a+1
  4639     03FF  3000               	movlw	0
  4640     0400  00AA               	movwf	___flmul@a
  4641     0401                     l2762:
  4642     0401  17AC               	bsf	___flmul@a+2,7
  4643     0402  2C0B               	goto	l2766
  4644     0403                     l2764:
  4645     0403  3000               	movlw	0
  4646     0404  00AD               	movwf	___flmul@a+3
  4647     0405  3000               	movlw	0
  4648     0406  00AC               	movwf	___flmul@a+2
  4649     0407  3000               	movlw	0
  4650     0408  00AB               	movwf	___flmul@a+1
  4651     0409  3000               	movlw	0
  4652     040A  00AA               	movwf	___flmul@a
  4653     040B                     l2766:
  4654     040B  0834               	movf	___flmul@aexp,w
  4655     040C  1903               	btfsc	3,2
  4656     040D  2C0F               	goto	u2991
  4657     040E  2C10               	goto	u2990
  4658     040F                     u2991:
  4659     040F  2C15               	goto	l2770
  4660     0410                     u2990:
  4661     0410                     l2768:
  4662     0410  0839               	movf	___flmul@bexp,w
  4663     0411  1D03               	btfss	3,2
  4664     0412  2C14               	goto	u3001
  4665     0413  2C15               	goto	u3000
  4666     0414                     u3001:
  4667     0414  2C1E               	goto	l2774
  4668     0415                     u3000:
  4669     0415                     l2770:
  4670     0415  3000               	movlw	0
  4671     0416  00A9               	movwf	?___flmul+3
  4672     0417  3000               	movlw	0
  4673     0418  00A8               	movwf	?___flmul+2
  4674     0419  3000               	movlw	0
  4675     041A  00A7               	movwf	?___flmul+1
  4676     041B  3000               	movlw	0
  4677     041C  00A6               	movwf	?___flmul
  4678     041D  2EFB               	goto	l789
  4679     041E                     l2774:
  4680     041E  0826               	movf	___flmul@b,w
  4681     041F  00F2               	movwf	__Umul8_16@multiplicand
  4682     0420  082C               	movf	___flmul@a+2,w
  4683     0421  160A  118A  27A8  120A  118A  	fcall	__Umul8_16
  4684     0426  0873               	movf	?__Umul8_16+1,w
  4685     0427  1283               	bcf	3,5	;RP0=0, select bank0
  4686     0428  1303               	bcf	3,6	;RP1=0, select bank0
  4687     0429  00BF               	movwf	___flmul@temp+1
  4688     042A  0872               	movf	?__Umul8_16,w
  4689     042B  00BE               	movwf	___flmul@temp
  4690     042C                     l2776:
  4691     042C  083E               	movf	___flmul@temp,w
  4692     042D  00AE               	movwf	??___flmul
  4693     042E  01AF               	clrf	??___flmul+1
  4694     042F  01B0               	clrf	??___flmul+2
  4695     0430  01B1               	clrf	??___flmul+3
  4696     0431  0831               	movf	??___flmul+3,w
  4697     0432  00B8               	movwf	___flmul@grs+3
  4698     0433  0830               	movf	??___flmul+2,w
  4699     0434  00B7               	movwf	___flmul@grs+2
  4700     0435  082F               	movf	??___flmul+1,w
  4701     0436  00B6               	movwf	___flmul@grs+1
  4702     0437  082E               	movf	??___flmul,w
  4703     0438  00B5               	movwf	___flmul@grs
  4704     0439                     l2778:
  4705     0439  083F               	movf	___flmul@temp+1,w
  4706     043A  00AE               	movwf	??___flmul
  4707     043B  01AF               	clrf	??___flmul+1
  4708     043C  01B0               	clrf	??___flmul+2
  4709     043D  01B1               	clrf	??___flmul+3
  4710     043E  0831               	movf	??___flmul+3,w
  4711     043F  00BD               	movwf	___flmul@prod+3
  4712     0440  0830               	movf	??___flmul+2,w
  4713     0441  00BC               	movwf	___flmul@prod+2
  4714     0442  082F               	movf	??___flmul+1,w
  4715     0443  00BB               	movwf	___flmul@prod+1
  4716     0444  082E               	movf	??___flmul,w
  4717     0445  00BA               	movwf	___flmul@prod
  4718     0446  0827               	movf	___flmul@b+1,w
  4719     0447  00F2               	movwf	__Umul8_16@multiplicand
  4720     0448  082B               	movf	___flmul@a+1,w
  4721     0449  160A  118A  27A8  120A  118A  	fcall	__Umul8_16
  4722     044E  0873               	movf	?__Umul8_16+1,w
  4723     044F  1283               	bcf	3,5	;RP0=0, select bank0
  4724     0450  1303               	bcf	3,6	;RP1=0, select bank0
  4725     0451  00BF               	movwf	___flmul@temp+1
  4726     0452  0872               	movf	?__Umul8_16,w
  4727     0453  00BE               	movwf	___flmul@temp
  4728     0454                     l2780:
  4729     0454  083E               	movf	___flmul@temp,w
  4730     0455  00AE               	movwf	??___flmul
  4731     0456  01AF               	clrf	??___flmul+1
  4732     0457  01B0               	clrf	??___flmul+2
  4733     0458  01B1               	clrf	??___flmul+3
  4734     0459  082E               	movf	??___flmul,w
  4735     045A  07B5               	addwf	___flmul@grs,f
  4736     045B  082F               	movf	??___flmul+1,w
  4737     045C  1103               	clrz
  4738     045D  1803               	skipnc
  4739     045E  3E01               	addlw	1
  4740     045F  1903               	skipnz
  4741     0460  2C62               	goto	u3011
  4742     0461  07B6               	addwf	___flmul@grs+1,f
  4743     0462                     u3011:
  4744     0462  0830               	movf	??___flmul+2,w
  4745     0463  1103               	clrz
  4746     0464  1803               	skipnc
  4747     0465  3E01               	addlw	1
  4748     0466  1903               	skipnz
  4749     0467  2C69               	goto	u3012
  4750     0468  07B7               	addwf	___flmul@grs+2,f
  4751     0469                     u3012:
  4752     0469  0831               	movf	??___flmul+3,w
  4753     046A  1103               	clrz
  4754     046B  1803               	skipnc
  4755     046C  3E01               	addlw	1
  4756     046D  1903               	skipnz
  4757     046E  2C70               	goto	u3013
  4758     046F  07B8               	addwf	___flmul@grs+3,f
  4759     0470                     u3013:
  4760     0470                     l2782:
  4761     0470  083F               	movf	___flmul@temp+1,w
  4762     0471  00AE               	movwf	??___flmul
  4763     0472  01AF               	clrf	??___flmul+1
  4764     0473  01B0               	clrf	??___flmul+2
  4765     0474  01B1               	clrf	??___flmul+3
  4766     0475  082E               	movf	??___flmul,w
  4767     0476  07BA               	addwf	___flmul@prod,f
  4768     0477  082F               	movf	??___flmul+1,w
  4769     0478  1103               	clrz
  4770     0479  1803               	skipnc
  4771     047A  3E01               	addlw	1
  4772     047B  1903               	skipnz
  4773     047C  2C7E               	goto	u3021
  4774     047D  07BB               	addwf	___flmul@prod+1,f
  4775     047E                     u3021:
  4776     047E  0830               	movf	??___flmul+2,w
  4777     047F  1103               	clrz
  4778     0480  1803               	skipnc
  4779     0481  3E01               	addlw	1
  4780     0482  1903               	skipnz
  4781     0483  2C85               	goto	u3022
  4782     0484  07BC               	addwf	___flmul@prod+2,f
  4783     0485                     u3022:
  4784     0485  0831               	movf	??___flmul+3,w
  4785     0486  1103               	clrz
  4786     0487  1803               	skipnc
  4787     0488  3E01               	addlw	1
  4788     0489  1903               	skipnz
  4789     048A  2C8C               	goto	u3023
  4790     048B  07BD               	addwf	___flmul@prod+3,f
  4791     048C                     u3023:
  4792     048C  0828               	movf	___flmul@b+2,w
  4793     048D  00F2               	movwf	__Umul8_16@multiplicand
  4794     048E  082A               	movf	___flmul@a,w
  4795     048F  160A  118A  27A8  120A  118A  	fcall	__Umul8_16
  4796     0494  0873               	movf	?__Umul8_16+1,w
  4797     0495  1283               	bcf	3,5	;RP0=0, select bank0
  4798     0496  1303               	bcf	3,6	;RP1=0, select bank0
  4799     0497  00BF               	movwf	___flmul@temp+1
  4800     0498  0872               	movf	?__Umul8_16,w
  4801     0499  00BE               	movwf	___flmul@temp
  4802     049A                     l2784:
  4803     049A  083E               	movf	___flmul@temp,w
  4804     049B  00AE               	movwf	??___flmul
  4805     049C  01AF               	clrf	??___flmul+1
  4806     049D  01B0               	clrf	??___flmul+2
  4807     049E  01B1               	clrf	??___flmul+3
  4808     049F  082E               	movf	??___flmul,w
  4809     04A0  07B5               	addwf	___flmul@grs,f
  4810     04A1  082F               	movf	??___flmul+1,w
  4811     04A2  1103               	clrz
  4812     04A3  1803               	skipnc
  4813     04A4  3E01               	addlw	1
  4814     04A5  1903               	skipnz
  4815     04A6  2CA8               	goto	u3031
  4816     04A7  07B6               	addwf	___flmul@grs+1,f
  4817     04A8                     u3031:
  4818     04A8  0830               	movf	??___flmul+2,w
  4819     04A9  1103               	clrz
  4820     04AA  1803               	skipnc
  4821     04AB  3E01               	addlw	1
  4822     04AC  1903               	skipnz
  4823     04AD  2CAF               	goto	u3032
  4824     04AE  07B7               	addwf	___flmul@grs+2,f
  4825     04AF                     u3032:
  4826     04AF  0831               	movf	??___flmul+3,w
  4827     04B0  1103               	clrz
  4828     04B1  1803               	skipnc
  4829     04B2  3E01               	addlw	1
  4830     04B3  1903               	skipnz
  4831     04B4  2CB6               	goto	u3033
  4832     04B5  07B8               	addwf	___flmul@grs+3,f
  4833     04B6                     u3033:
  4834     04B6                     l2786:
  4835     04B6  083F               	movf	___flmul@temp+1,w
  4836     04B7  00AE               	movwf	??___flmul
  4837     04B8  01AF               	clrf	??___flmul+1
  4838     04B9  01B0               	clrf	??___flmul+2
  4839     04BA  01B1               	clrf	??___flmul+3
  4840     04BB  082E               	movf	??___flmul,w
  4841     04BC  07BA               	addwf	___flmul@prod,f
  4842     04BD  082F               	movf	??___flmul+1,w
  4843     04BE  1103               	clrz
  4844     04BF  1803               	skipnc
  4845     04C0  3E01               	addlw	1
  4846     04C1  1903               	skipnz
  4847     04C2  2CC4               	goto	u3041
  4848     04C3  07BB               	addwf	___flmul@prod+1,f
  4849     04C4                     u3041:
  4850     04C4  0830               	movf	??___flmul+2,w
  4851     04C5  1103               	clrz
  4852     04C6  1803               	skipnc
  4853     04C7  3E01               	addlw	1
  4854     04C8  1903               	skipnz
  4855     04C9  2CCB               	goto	u3042
  4856     04CA  07BC               	addwf	___flmul@prod+2,f
  4857     04CB                     u3042:
  4858     04CB  0831               	movf	??___flmul+3,w
  4859     04CC  1103               	clrz
  4860     04CD  1803               	skipnc
  4861     04CE  3E01               	addlw	1
  4862     04CF  1903               	skipnz
  4863     04D0  2CD2               	goto	u3043
  4864     04D1  07BD               	addwf	___flmul@prod+3,f
  4865     04D2                     u3043:
  4866     04D2                     l2788:
  4867     04D2  3008               	movlw	8
  4868     04D3  00AE               	movwf	??___flmul
  4869     04D4                     u3055:
  4870     04D4  1003               	clrc
  4871     04D5  0DB5               	rlf	___flmul@grs,f
  4872     04D6  0DB6               	rlf	___flmul@grs+1,f
  4873     04D7  0DB7               	rlf	___flmul@grs+2,f
  4874     04D8  0DB8               	rlf	___flmul@grs+3,f
  4875     04D9  0BAE               	decfsz	??___flmul,f
  4876     04DA  2CD4               	goto	u3055
  4877     04DB                     l2790:
  4878     04DB  0827               	movf	___flmul@b+1,w
  4879     04DC  00F2               	movwf	__Umul8_16@multiplicand
  4880     04DD  082A               	movf	___flmul@a,w
  4881     04DE  160A  118A  27A8  120A  118A  	fcall	__Umul8_16
  4882     04E3  0873               	movf	?__Umul8_16+1,w
  4883     04E4  1283               	bcf	3,5	;RP0=0, select bank0
  4884     04E5  1303               	bcf	3,6	;RP1=0, select bank0
  4885     04E6  00BF               	movwf	___flmul@temp+1
  4886     04E7  0872               	movf	?__Umul8_16,w
  4887     04E8  00BE               	movwf	___flmul@temp
  4888     04E9                     l2792:
  4889     04E9  083E               	movf	___flmul@temp,w
  4890     04EA  00AE               	movwf	??___flmul
  4891     04EB  083F               	movf	___flmul@temp+1,w
  4892     04EC  00AF               	movwf	??___flmul+1
  4893     04ED  01B0               	clrf	??___flmul+2
  4894     04EE  01B1               	clrf	??___flmul+3
  4895     04EF  082E               	movf	??___flmul,w
  4896     04F0  07B5               	addwf	___flmul@grs,f
  4897     04F1  082F               	movf	??___flmul+1,w
  4898     04F2  1103               	clrz
  4899     04F3  1803               	skipnc
  4900     04F4  3E01               	addlw	1
  4901     04F5  1903               	skipnz
  4902     04F6  2CF8               	goto	u3061
  4903     04F7  07B6               	addwf	___flmul@grs+1,f
  4904     04F8                     u3061:
  4905     04F8  0830               	movf	??___flmul+2,w
  4906     04F9  1103               	clrz
  4907     04FA  1803               	skipnc
  4908     04FB  3E01               	addlw	1
  4909     04FC  1903               	skipnz
  4910     04FD  2CFF               	goto	u3062
  4911     04FE  07B7               	addwf	___flmul@grs+2,f
  4912     04FF                     u3062:
  4913     04FF  0831               	movf	??___flmul+3,w
  4914     0500  1103               	clrz
  4915     0501  1803               	skipnc
  4916     0502  3E01               	addlw	1
  4917     0503  1903               	skipnz
  4918     0504  2D06               	goto	u3063
  4919     0505  07B8               	addwf	___flmul@grs+3,f
  4920     0506                     u3063:
  4921     0506                     l2794:
  4922     0506  0826               	movf	___flmul@b,w
  4923     0507  00F2               	movwf	__Umul8_16@multiplicand
  4924     0508  082B               	movf	___flmul@a+1,w
  4925     0509  160A  118A  27A8  120A  118A  	fcall	__Umul8_16
  4926     050E  0873               	movf	?__Umul8_16+1,w
  4927     050F  1283               	bcf	3,5	;RP0=0, select bank0
  4928     0510  1303               	bcf	3,6	;RP1=0, select bank0
  4929     0511  00BF               	movwf	___flmul@temp+1
  4930     0512  0872               	movf	?__Umul8_16,w
  4931     0513  00BE               	movwf	___flmul@temp
  4932     0514                     l2796:
  4933     0514  083E               	movf	___flmul@temp,w
  4934     0515  00AE               	movwf	??___flmul
  4935     0516  083F               	movf	___flmul@temp+1,w
  4936     0517  00AF               	movwf	??___flmul+1
  4937     0518  01B0               	clrf	??___flmul+2
  4938     0519  01B1               	clrf	??___flmul+3
  4939     051A  082E               	movf	??___flmul,w
  4940     051B  07B5               	addwf	___flmul@grs,f
  4941     051C  082F               	movf	??___flmul+1,w
  4942     051D  1103               	clrz
  4943     051E  1803               	skipnc
  4944     051F  3E01               	addlw	1
  4945     0520  1903               	skipnz
  4946     0521  2D23               	goto	u3071
  4947     0522  07B6               	addwf	___flmul@grs+1,f
  4948     0523                     u3071:
  4949     0523  0830               	movf	??___flmul+2,w
  4950     0524  1103               	clrz
  4951     0525  1803               	skipnc
  4952     0526  3E01               	addlw	1
  4953     0527  1903               	skipnz
  4954     0528  2D2A               	goto	u3072
  4955     0529  07B7               	addwf	___flmul@grs+2,f
  4956     052A                     u3072:
  4957     052A  0831               	movf	??___flmul+3,w
  4958     052B  1103               	clrz
  4959     052C  1803               	skipnc
  4960     052D  3E01               	addlw	1
  4961     052E  1903               	skipnz
  4962     052F  2D31               	goto	u3073
  4963     0530  07B8               	addwf	___flmul@grs+3,f
  4964     0531                     u3073:
  4965     0531                     l2798:
  4966     0531  3008               	movlw	8
  4967     0532  00AE               	movwf	??___flmul
  4968     0533                     u3085:
  4969     0533  1003               	clrc
  4970     0534  0DB5               	rlf	___flmul@grs,f
  4971     0535  0DB6               	rlf	___flmul@grs+1,f
  4972     0536  0DB7               	rlf	___flmul@grs+2,f
  4973     0537  0DB8               	rlf	___flmul@grs+3,f
  4974     0538  0BAE               	decfsz	??___flmul,f
  4975     0539  2D33               	goto	u3085
  4976     053A  0826               	movf	___flmul@b,w
  4977     053B  00F2               	movwf	__Umul8_16@multiplicand
  4978     053C  082A               	movf	___flmul@a,w
  4979     053D  160A  118A  27A8  120A  118A  	fcall	__Umul8_16
  4980     0542  0873               	movf	?__Umul8_16+1,w
  4981     0543  1283               	bcf	3,5	;RP0=0, select bank0
  4982     0544  1303               	bcf	3,6	;RP1=0, select bank0
  4983     0545  00BF               	movwf	___flmul@temp+1
  4984     0546  0872               	movf	?__Umul8_16,w
  4985     0547  00BE               	movwf	___flmul@temp
  4986     0548                     l2800:
  4987     0548  083E               	movf	___flmul@temp,w
  4988     0549  00AE               	movwf	??___flmul
  4989     054A  083F               	movf	___flmul@temp+1,w
  4990     054B  00AF               	movwf	??___flmul+1
  4991     054C  01B0               	clrf	??___flmul+2
  4992     054D  01B1               	clrf	??___flmul+3
  4993     054E  082E               	movf	??___flmul,w
  4994     054F  07B5               	addwf	___flmul@grs,f
  4995     0550  082F               	movf	??___flmul+1,w
  4996     0551  1103               	clrz
  4997     0552  1803               	skipnc
  4998     0553  3E01               	addlw	1
  4999     0554  1903               	skipnz
  5000     0555  2D57               	goto	u3091
  5001     0556  07B6               	addwf	___flmul@grs+1,f
  5002     0557                     u3091:
  5003     0557  0830               	movf	??___flmul+2,w
  5004     0558  1103               	clrz
  5005     0559  1803               	skipnc
  5006     055A  3E01               	addlw	1
  5007     055B  1903               	skipnz
  5008     055C  2D5E               	goto	u3092
  5009     055D  07B7               	addwf	___flmul@grs+2,f
  5010     055E                     u3092:
  5011     055E  0831               	movf	??___flmul+3,w
  5012     055F  1103               	clrz
  5013     0560  1803               	skipnc
  5014     0561  3E01               	addlw	1
  5015     0562  1903               	skipnz
  5016     0563  2D65               	goto	u3093
  5017     0564  07B8               	addwf	___flmul@grs+3,f
  5018     0565                     u3093:
  5019     0565                     l2802:
  5020     0565  0827               	movf	___flmul@b+1,w
  5021     0566  00F2               	movwf	__Umul8_16@multiplicand
  5022     0567  082C               	movf	___flmul@a+2,w
  5023     0568  160A  118A  27A8  120A  118A  	fcall	__Umul8_16
  5024     056D  0873               	movf	?__Umul8_16+1,w
  5025     056E  1283               	bcf	3,5	;RP0=0, select bank0
  5026     056F  1303               	bcf	3,6	;RP1=0, select bank0
  5027     0570  00BF               	movwf	___flmul@temp+1
  5028     0571  0872               	movf	?__Umul8_16,w
  5029     0572  00BE               	movwf	___flmul@temp
  5030     0573  083E               	movf	___flmul@temp,w
  5031     0574  00AE               	movwf	??___flmul
  5032     0575  083F               	movf	___flmul@temp+1,w
  5033     0576  00AF               	movwf	??___flmul+1
  5034     0577  01B0               	clrf	??___flmul+2
  5035     0578  01B1               	clrf	??___flmul+3
  5036     0579  082E               	movf	??___flmul,w
  5037     057A  07BA               	addwf	___flmul@prod,f
  5038     057B  082F               	movf	??___flmul+1,w
  5039     057C  1103               	clrz
  5040     057D  1803               	skipnc
  5041     057E  3E01               	addlw	1
  5042     057F  1903               	skipnz
  5043     0580  2D82               	goto	u3101
  5044     0581  07BB               	addwf	___flmul@prod+1,f
  5045     0582                     u3101:
  5046     0582  0830               	movf	??___flmul+2,w
  5047     0583  1103               	clrz
  5048     0584  1803               	skipnc
  5049     0585  3E01               	addlw	1
  5050     0586  1903               	skipnz
  5051     0587  2D89               	goto	u3102
  5052     0588  07BC               	addwf	___flmul@prod+2,f
  5053     0589                     u3102:
  5054     0589  0831               	movf	??___flmul+3,w
  5055     058A  1103               	clrz
  5056     058B  1803               	skipnc
  5057     058C  3E01               	addlw	1
  5058     058D  1903               	skipnz
  5059     058E  2D90               	goto	u3103
  5060     058F  07BD               	addwf	___flmul@prod+3,f
  5061     0590                     u3103:
  5062     0590                     l2804:
  5063     0590  0828               	movf	___flmul@b+2,w
  5064     0591  00F2               	movwf	__Umul8_16@multiplicand
  5065     0592  082B               	movf	___flmul@a+1,w
  5066     0593  160A  118A  27A8  120A  118A  	fcall	__Umul8_16
  5067     0598  0873               	movf	?__Umul8_16+1,w
  5068     0599  1283               	bcf	3,5	;RP0=0, select bank0
  5069     059A  1303               	bcf	3,6	;RP1=0, select bank0
  5070     059B  00BF               	movwf	___flmul@temp+1
  5071     059C  0872               	movf	?__Umul8_16,w
  5072     059D  00BE               	movwf	___flmul@temp
  5073     059E                     l2806:
  5074     059E  083E               	movf	___flmul@temp,w
  5075     059F  00AE               	movwf	??___flmul
  5076     05A0  083F               	movf	___flmul@temp+1,w
  5077     05A1  00AF               	movwf	??___flmul+1
  5078     05A2  01B0               	clrf	??___flmul+2
  5079     05A3  01B1               	clrf	??___flmul+3
  5080     05A4  082E               	movf	??___flmul,w
  5081     05A5  07BA               	addwf	___flmul@prod,f
  5082     05A6  082F               	movf	??___flmul+1,w
  5083     05A7  1103               	clrz
  5084     05A8  1803               	skipnc
  5085     05A9  3E01               	addlw	1
  5086     05AA  1903               	skipnz
  5087     05AB  2DAD               	goto	u3111
  5088     05AC  07BB               	addwf	___flmul@prod+1,f
  5089     05AD                     u3111:
  5090     05AD  0830               	movf	??___flmul+2,w
  5091     05AE  1103               	clrz
  5092     05AF  1803               	skipnc
  5093     05B0  3E01               	addlw	1
  5094     05B1  1903               	skipnz
  5095     05B2  2DB4               	goto	u3112
  5096     05B3  07BC               	addwf	___flmul@prod+2,f
  5097     05B4                     u3112:
  5098     05B4  0831               	movf	??___flmul+3,w
  5099     05B5  1103               	clrz
  5100     05B6  1803               	skipnc
  5101     05B7  3E01               	addlw	1
  5102     05B8  1903               	skipnz
  5103     05B9  2DBB               	goto	u3113
  5104     05BA  07BD               	addwf	___flmul@prod+3,f
  5105     05BB                     u3113:
  5106     05BB  0828               	movf	___flmul@b+2,w
  5107     05BC  00F2               	movwf	__Umul8_16@multiplicand
  5108     05BD  082C               	movf	___flmul@a+2,w
  5109     05BE  160A  118A  27A8  120A  118A  	fcall	__Umul8_16
  5110     05C3  0873               	movf	?__Umul8_16+1,w
  5111     05C4  1283               	bcf	3,5	;RP0=0, select bank0
  5112     05C5  1303               	bcf	3,6	;RP1=0, select bank0
  5113     05C6  00BF               	movwf	___flmul@temp+1
  5114     05C7  0872               	movf	?__Umul8_16,w
  5115     05C8  00BE               	movwf	___flmul@temp
  5116     05C9                     l2808:
  5117     05C9  083E               	movf	___flmul@temp,w
  5118     05CA  00AE               	movwf	??___flmul
  5119     05CB  083F               	movf	___flmul@temp+1,w
  5120     05CC  00AF               	movwf	??___flmul+1
  5121     05CD  01B0               	clrf	??___flmul+2
  5122     05CE  01B1               	clrf	??___flmul+3
  5123     05CF  3008               	movlw	8
  5124     05D0                     u3125:
  5125     05D0  1003               	clrc
  5126     05D1  0DAE               	rlf	??___flmul,f
  5127     05D2  0DAF               	rlf	??___flmul+1,f
  5128     05D3  0DB0               	rlf	??___flmul+2,f
  5129     05D4  0DB1               	rlf	??___flmul+3,f
  5130     05D5                     u3120:
  5131     05D5  3EFF               	addlw	-1
  5132     05D6  1D03               	skipz
  5133     05D7  2DD0               	goto	u3125
  5134     05D8  082E               	movf	??___flmul,w
  5135     05D9  07BA               	addwf	___flmul@prod,f
  5136     05DA  082F               	movf	??___flmul+1,w
  5137     05DB  1103               	clrz
  5138     05DC  1803               	skipnc
  5139     05DD  3E01               	addlw	1
  5140     05DE  1903               	skipnz
  5141     05DF  2DE1               	goto	u3131
  5142     05E0  07BB               	addwf	___flmul@prod+1,f
  5143     05E1                     u3131:
  5144     05E1  0830               	movf	??___flmul+2,w
  5145     05E2  1103               	clrz
  5146     05E3  1803               	skipnc
  5147     05E4  3E01               	addlw	1
  5148     05E5  1903               	skipnz
  5149     05E6  2DE8               	goto	u3132
  5150     05E7  07BC               	addwf	___flmul@prod+2,f
  5151     05E8                     u3132:
  5152     05E8  0831               	movf	??___flmul+3,w
  5153     05E9  1103               	clrz
  5154     05EA  1803               	skipnc
  5155     05EB  3E01               	addlw	1
  5156     05EC  1903               	skipnz
  5157     05ED  2DEF               	goto	u3133
  5158     05EE  07BD               	addwf	___flmul@prod+3,f
  5159     05EF                     u3133:
  5160     05EF                     l2810:
  5161     05EF  0835               	movf	___flmul@grs,w
  5162     05F0  00AE               	movwf	??___flmul
  5163     05F1  0836               	movf	___flmul@grs+1,w
  5164     05F2  00AF               	movwf	??___flmul+1
  5165     05F3  0837               	movf	___flmul@grs+2,w
  5166     05F4  00B0               	movwf	??___flmul+2
  5167     05F5  0838               	movf	___flmul@grs+3,w
  5168     05F6  00B1               	movwf	??___flmul+3
  5169     05F7  3018               	movlw	24
  5170     05F8                     u3145:
  5171     05F8  1003               	clrc
  5172     05F9  0CB1               	rrf	??___flmul+3,f
  5173     05FA  0CB0               	rrf	??___flmul+2,f
  5174     05FB  0CAF               	rrf	??___flmul+1,f
  5175     05FC  0CAE               	rrf	??___flmul,f
  5176     05FD                     u3140:
  5177     05FD  3EFF               	addlw	-1
  5178     05FE  1D03               	skipz
  5179     05FF  2DF8               	goto	u3145
  5180     0600  082E               	movf	??___flmul,w
  5181     0601  07BA               	addwf	___flmul@prod,f
  5182     0602  082F               	movf	??___flmul+1,w
  5183     0603  1103               	clrz
  5184     0604  1803               	skipnc
  5185     0605  3E01               	addlw	1
  5186     0606  1903               	skipnz
  5187     0607  2E09               	goto	u3151
  5188     0608  07BB               	addwf	___flmul@prod+1,f
  5189     0609                     u3151:
  5190     0609  0830               	movf	??___flmul+2,w
  5191     060A  1103               	clrz
  5192     060B  1803               	skipnc
  5193     060C  3E01               	addlw	1
  5194     060D  1903               	skipnz
  5195     060E  2E10               	goto	u3152
  5196     060F  07BC               	addwf	___flmul@prod+2,f
  5197     0610                     u3152:
  5198     0610  0831               	movf	??___flmul+3,w
  5199     0611  1103               	clrz
  5200     0612  1803               	skipnc
  5201     0613  3E01               	addlw	1
  5202     0614  1903               	skipnz
  5203     0615  2E17               	goto	u3153
  5204     0616  07BD               	addwf	___flmul@prod+3,f
  5205     0617                     u3153:
  5206     0617                     l2812:
  5207     0617  3008               	movlw	8
  5208     0618  00AE               	movwf	??___flmul
  5209     0619                     u3165:
  5210     0619  1003               	clrc
  5211     061A  0DB5               	rlf	___flmul@grs,f
  5212     061B  0DB6               	rlf	___flmul@grs+1,f
  5213     061C  0DB7               	rlf	___flmul@grs+2,f
  5214     061D  0DB8               	rlf	___flmul@grs+3,f
  5215     061E  0BAE               	decfsz	??___flmul,f
  5216     061F  2E19               	goto	u3165
  5217     0620                     l2814:
  5218     0620  0839               	movf	___flmul@bexp,w
  5219     0621  0734               	addwf	___flmul@aexp,w
  5220     0622  00AE               	movwf	??___flmul
  5221     0623  01AF               	clrf	??___flmul+1
  5222     0624  0DAF               	rlf	??___flmul+1,f
  5223     0625  082E               	movf	??___flmul,w
  5224     0626  3E82               	addlw	130
  5225     0627  00BE               	movwf	___flmul@temp
  5226     0628  082F               	movf	??___flmul+1,w
  5227     0629  1803               	skipnc
  5228     062A  3E01               	addlw	1
  5229     062B  3EFF               	addlw	255
  5230     062C  00BF               	movwf	___flmul@temp+1
  5231     062D  2E4B               	goto	l2826
  5232     062E                     l2816:
  5233     062E  3001               	movlw	1
  5234     062F  00AE               	movwf	??___flmul
  5235     0630                     u3175:
  5236     0630  1003               	clrc
  5237     0631  0DBA               	rlf	___flmul@prod,f
  5238     0632  0DBB               	rlf	___flmul@prod+1,f
  5239     0633  0DBC               	rlf	___flmul@prod+2,f
  5240     0634  0DBD               	rlf	___flmul@prod+3,f
  5241     0635  0BAE               	decfsz	??___flmul,f
  5242     0636  2E30               	goto	u3175
  5243     0637                     l2818:
  5244     0637  1FB8               	btfss	___flmul@grs+3,7
  5245     0638  2E3A               	goto	u3181
  5246     0639  2E3B               	goto	u3180
  5247     063A                     u3181:
  5248     063A  2E3C               	goto	l2822
  5249     063B                     u3180:
  5250     063B                     l2820:
  5251     063B  143A               	bsf	___flmul@prod,0
  5252     063C                     l2822:
  5253     063C  3001               	movlw	1
  5254     063D  00AE               	movwf	??___flmul
  5255     063E                     u3195:
  5256     063E  1003               	clrc
  5257     063F  0DB5               	rlf	___flmul@grs,f
  5258     0640  0DB6               	rlf	___flmul@grs+1,f
  5259     0641  0DB7               	rlf	___flmul@grs+2,f
  5260     0642  0DB8               	rlf	___flmul@grs+3,f
  5261     0643  0BAE               	decfsz	??___flmul,f
  5262     0644  2E3E               	goto	u3195
  5263     0645                     l2824:
  5264     0645  30FF               	movlw	255
  5265     0646  07BE               	addwf	___flmul@temp,f
  5266     0647  1803               	skipnc
  5267     0648  0ABF               	incf	___flmul@temp+1,f
  5268     0649  30FF               	movlw	255
  5269     064A  07BF               	addwf	___flmul@temp+1,f
  5270     064B                     l2826:
  5271     064B  1FBC               	btfss	___flmul@prod+2,7
  5272     064C  2E4E               	goto	u3201
  5273     064D  2E4F               	goto	u3200
  5274     064E                     u3201:
  5275     064E  2E2E               	goto	l2816
  5276     064F                     u3200:
  5277     064F                     l2828:
  5278     064F  01B4               	clrf	___flmul@aexp
  5279     0650                     l2830:
  5280     0650  1FB8               	btfss	___flmul@grs+3,7
  5281     0651  2E53               	goto	u3211
  5282     0652  2E54               	goto	u3210
  5283     0653                     u3211:
  5284     0653  2E70               	goto	l2838
  5285     0654                     u3210:
  5286     0654                     l2832:
  5287     0654  30FF               	movlw	255
  5288     0655  0535               	andwf	___flmul@grs,w
  5289     0656  00AE               	movwf	??___flmul
  5290     0657  30FF               	movlw	255
  5291     0658  0536               	andwf	___flmul@grs+1,w
  5292     0659  00AF               	movwf	??___flmul+1
  5293     065A  30FF               	movlw	255
  5294     065B  0537               	andwf	___flmul@grs+2,w
  5295     065C  00B0               	movwf	??___flmul+2
  5296     065D  307F               	movlw	127
  5297     065E  0538               	andwf	___flmul@grs+3,w
  5298     065F  00B1               	movwf	??___flmul+3
  5299     0660  0831               	movf	??___flmul+3,w
  5300     0661  0430               	iorwf	??___flmul+2,w
  5301     0662  042F               	iorwf	??___flmul+1,w
  5302     0663  042E               	iorwf	??___flmul,w
  5303     0664  1903               	skipnz
  5304     0665  2E67               	goto	u3221
  5305     0666  2E68               	goto	u3220
  5306     0667                     u3221:
  5307     0667  2E6B               	goto	l795
  5308     0668                     u3220:
  5309     0668                     l2834:
  5310     0668  01B4               	clrf	___flmul@aexp
  5311     0669  0AB4               	incf	___flmul@aexp,f
  5312     066A  2E70               	goto	l2838
  5313     066B                     l795:
  5314     066B  1C3A               	btfss	___flmul@prod,0
  5315     066C  2E6E               	goto	u3231
  5316     066D  2E6F               	goto	u3230
  5317     066E                     u3231:
  5318     066E  2E70               	goto	l2838
  5319     066F                     u3230:
  5320     066F  2E68               	goto	l2834
  5321     0670                     l2838:
  5322     0670  0834               	movf	___flmul@aexp,w
  5323     0671  1903               	btfsc	3,2
  5324     0672  2E74               	goto	u3241
  5325     0673  2E75               	goto	u3240
  5326     0674                     u3241:
  5327     0674  2EA6               	goto	l2848
  5328     0675                     u3240:
  5329     0675                     l2840:
  5330     0675  3001               	movlw	1
  5331     0676  07BA               	addwf	___flmul@prod,f
  5332     0677  3000               	movlw	0
  5333     0678  1803               	skipnc
  5334     0679  3001               	movlw	1
  5335     067A  07BB               	addwf	___flmul@prod+1,f
  5336     067B  3000               	movlw	0
  5337     067C  1803               	skipnc
  5338     067D  3001               	movlw	1
  5339     067E  07BC               	addwf	___flmul@prod+2,f
  5340     067F  3000               	movlw	0
  5341     0680  1803               	skipnc
  5342     0681  3001               	movlw	1
  5343     0682  07BD               	addwf	___flmul@prod+3,f
  5344     0683                     l2842:
  5345     0683  1C3D               	btfss	___flmul@prod+3,0
  5346     0684  2E86               	goto	u3251
  5347     0685  2E87               	goto	u3250
  5348     0686                     u3251:
  5349     0686  2EA6               	goto	l2848
  5350     0687                     u3250:
  5351     0687                     l2844:
  5352     0687  083A               	movf	___flmul@prod,w
  5353     0688  00AE               	movwf	??___flmul
  5354     0689  083B               	movf	___flmul@prod+1,w
  5355     068A  00AF               	movwf	??___flmul+1
  5356     068B  083C               	movf	___flmul@prod+2,w
  5357     068C  00B0               	movwf	??___flmul+2
  5358     068D  083D               	movf	___flmul@prod+3,w
  5359     068E  00B1               	movwf	??___flmul+3
  5360     068F  3001               	movlw	1
  5361     0690  00B2               	movwf	??___flmul+4
  5362     0691                     u3265:
  5363     0691  0D31               	rlf	??___flmul+3,w
  5364     0692  0CB1               	rrf	??___flmul+3,f
  5365     0693  0CB0               	rrf	??___flmul+2,f
  5366     0694  0CAF               	rrf	??___flmul+1,f
  5367     0695  0CAE               	rrf	??___flmul,f
  5368     0696                     u3260:
  5369     0696  0BB2               	decfsz	??___flmul+4,f
  5370     0697  2E91               	goto	u3265
  5371     0698  0831               	movf	??___flmul+3,w
  5372     0699  00BD               	movwf	___flmul@prod+3
  5373     069A  0830               	movf	??___flmul+2,w
  5374     069B  00BC               	movwf	___flmul@prod+2
  5375     069C  082F               	movf	??___flmul+1,w
  5376     069D  00BB               	movwf	___flmul@prod+1
  5377     069E  082E               	movf	??___flmul,w
  5378     069F  00BA               	movwf	___flmul@prod
  5379     06A0                     l2846:
  5380     06A0  3001               	movlw	1
  5381     06A1  07BE               	addwf	___flmul@temp,f
  5382     06A2  1803               	skipnc
  5383     06A3  0ABF               	incf	___flmul@temp+1,f
  5384     06A4  3000               	movlw	0
  5385     06A5  07BF               	addwf	___flmul@temp+1,f
  5386     06A6                     l2848:
  5387     06A6  083F               	movf	___flmul@temp+1,w
  5388     06A7  3A80               	xorlw	128
  5389     06A8  00FF               	movwf	btemp+1
  5390     06A9  3080               	movlw	128
  5391     06AA  027F               	subwf	btemp+1,w
  5392     06AB  1D03               	skipz
  5393     06AC  2EAF               	goto	u3275
  5394     06AD  30FF               	movlw	255
  5395     06AE  023E               	subwf	___flmul@temp,w
  5396     06AF                     u3275:
  5397     06AF  1C03               	skipc
  5398     06B0  2EB2               	goto	u3271
  5399     06B1  2EB3               	goto	u3270
  5400     06B2                     u3271:
  5401     06B2  2EBE               	goto	l2852
  5402     06B3                     u3270:
  5403     06B3                     l2850:
  5404     06B3  307F               	movlw	127
  5405     06B4  1283               	bcf	3,5	;RP0=0, select bank0
  5406     06B5  1303               	bcf	3,6	;RP1=0, select bank0
  5407     06B6  00BD               	movwf	___flmul@prod+3
  5408     06B7  3080               	movlw	128
  5409     06B8  00BC               	movwf	___flmul@prod+2
  5410     06B9  3000               	movlw	0
  5411     06BA  00BB               	movwf	___flmul@prod+1
  5412     06BB  3000               	movlw	0
  5413     06BC  00BA               	movwf	___flmul@prod
  5414     06BD  2EEF               	goto	l2866
  5415     06BE                     l2852:
  5416     06BE  1283               	bcf	3,5	;RP0=0, select bank0
  5417     06BF  1303               	bcf	3,6	;RP1=0, select bank0
  5418     06C0  083F               	movf	___flmul@temp+1,w
  5419     06C1  3A80               	xorlw	128
  5420     06C2  00FF               	movwf	btemp+1
  5421     06C3  3080               	movlw	128
  5422     06C4  027F               	subwf	btemp+1,w
  5423     06C5  1D03               	skipz
  5424     06C6  2EC9               	goto	u3285
  5425     06C7  3001               	movlw	1
  5426     06C8  023E               	subwf	___flmul@temp,w
  5427     06C9                     u3285:
  5428     06C9  1803               	skipnc
  5429     06CA  2ECC               	goto	u3281
  5430     06CB  2ECD               	goto	u3280
  5431     06CC                     u3281:
  5432     06CC  2ED9               	goto	l2858
  5433     06CD                     u3280:
  5434     06CD                     l2854:
  5435     06CD  3000               	movlw	0
  5436     06CE  1283               	bcf	3,5	;RP0=0, select bank0
  5437     06CF  1303               	bcf	3,6	;RP1=0, select bank0
  5438     06D0  00BD               	movwf	___flmul@prod+3
  5439     06D1  3000               	movlw	0
  5440     06D2  00BC               	movwf	___flmul@prod+2
  5441     06D3  3000               	movlw	0
  5442     06D4  00BB               	movwf	___flmul@prod+1
  5443     06D5  3000               	movlw	0
  5444     06D6  00BA               	movwf	___flmul@prod
  5445     06D7                     l2856:
  5446     06D7  01B3               	clrf	___flmul@sign
  5447     06D8  2EEF               	goto	l2866
  5448     06D9                     l2858:
  5449     06D9  1283               	bcf	3,5	;RP0=0, select bank0
  5450     06DA  1303               	bcf	3,6	;RP1=0, select bank0
  5451     06DB  083E               	movf	___flmul@temp,w
  5452     06DC  00B9               	movwf	___flmul@bexp
  5453     06DD  30FF               	movlw	255
  5454     06DE  05BA               	andwf	___flmul@prod,f
  5455     06DF  30FF               	movlw	255
  5456     06E0  05BB               	andwf	___flmul@prod+1,f
  5457     06E1  307F               	movlw	127
  5458     06E2  05BC               	andwf	___flmul@prod+2,f
  5459     06E3  3000               	movlw	0
  5460     06E4  05BD               	andwf	___flmul@prod+3,f
  5461     06E5                     l2860:
  5462     06E5  1C39               	btfss	___flmul@bexp,0
  5463     06E6  2EE8               	goto	u3291
  5464     06E7  2EE9               	goto	u3290
  5465     06E8                     u3291:
  5466     06E8  2EEA               	goto	l2864
  5467     06E9                     u3290:
  5468     06E9                     l2862:
  5469     06E9  17BC               	bsf	___flmul@prod+2,7
  5470     06EA                     l2864:
  5471     06EA  0839               	movf	___flmul@bexp,w
  5472     06EB  00AE               	movwf	??___flmul
  5473     06EC  1003               	clrc
  5474     06ED  0C2E               	rrf	??___flmul,w
  5475     06EE  00BD               	movwf	___flmul@prod+3
  5476     06EF                     l2866:
  5477     06EF  0833               	movf	___flmul@sign,w
  5478     06F0  00FF               	movwf	btemp+1
  5479     06F1  087F               	movf	btemp+1,w
  5480     06F2  04BD               	iorwf	___flmul@prod+3,f
  5481     06F3                     l2868:
  5482     06F3  083D               	movf	___flmul@prod+3,w
  5483     06F4  00A9               	movwf	?___flmul+3
  5484     06F5  083C               	movf	___flmul@prod+2,w
  5485     06F6  00A8               	movwf	?___flmul+2
  5486     06F7  083B               	movf	___flmul@prod+1,w
  5487     06F8  00A7               	movwf	?___flmul+1
  5488     06F9  083A               	movf	___flmul@prod,w
  5489     06FA  00A6               	movwf	?___flmul
  5490     06FB                     l789:
  5491     06FB  0008               	return
  5492     06FC                     __end_of___flmul:
  5493                           
  5494                           	psect	text10
  5495     17A8                     __ptext10:	
  5496 ;; *************** function __Umul8_16 *****************
  5497 ;; Defined at:
  5498 ;;		line 4 in file "E:\6th sem softwares\MPLAB V5\XCM\pic\sources\c99\common\Umul8_16.c"
  5499 ;; Parameters:    Size  Location     Type
  5500 ;;  multiplier      1    wreg     unsigned char 
  5501 ;;  multiplicand    1    2[COMMON] unsigned char 
  5502 ;; Auto vars:     Size  Location     Type
  5503 ;;  multiplier      1    4[BANK0 ] unsigned char 
  5504 ;;  word_mpld       2    2[BANK0 ] unsigned short 
  5505 ;;  product         2    0[BANK0 ] unsigned short 
  5506 ;; Return value:  Size  Location     Type
  5507 ;;                  2    2[COMMON] unsigned int 
  5508 ;; Registers used:
  5509 ;;		wreg, status,2, status,0
  5510 ;; Tracked objects:
  5511 ;;		On entry : 0/0
  5512 ;;		On exit  : 0/0
  5513 ;;		Unchanged: 0/0
  5514 ;; Data sizes:     COMMON   BANK0   BANK1   BANK3   BANK2
  5515 ;;      Params:         2       0       0       0       0
  5516 ;;      Locals:         0       5       0       0       0
  5517 ;;      Temps:          2       0       0       0       0
  5518 ;;      Totals:         4       5       0       0       0
  5519 ;;Total ram usage:        9 bytes
  5520 ;; Hardware stack levels used: 1
  5521 ;; Hardware stack levels required when called: 1
  5522 ;; This function calls:
  5523 ;;		Nothing
  5524 ;; This function is called by:
  5525 ;;		___flmul
  5526 ;; This function uses a non-reentrant model
  5527 ;;
  5528                           
  5529     17A8                     __Umul8_16:	
  5530                           ;psect for function __Umul8_16
  5531                           
  5532                           
  5533                           ;incstack = 0
  5534                           ; Regs used in __Umul8_16: [wreg+status,2+status,0]
  5535                           ;__Umul8_16@multiplier stored from wreg
  5536     17A8  1283               	bcf	3,5	;RP0=0, select bank0
  5537     17A9  1303               	bcf	3,6	;RP1=0, select bank0
  5538     17AA  00A4               	movwf	__Umul8_16@multiplier
  5539     17AB                     l2682:
  5540     17AB  01A0               	clrf	__Umul8_16@product
  5541     17AC  01A1               	clrf	__Umul8_16@product+1
  5542     17AD                     l2684:
  5543     17AD  0872               	movf	__Umul8_16@multiplicand,w
  5544     17AE  00F4               	movwf	??__Umul8_16
  5545     17AF  01F5               	clrf	??__Umul8_16+1
  5546     17B0  0874               	movf	??__Umul8_16,w
  5547     17B1  00A2               	movwf	__Umul8_16@word_mpld
  5548     17B2  0875               	movf	??__Umul8_16+1,w
  5549     17B3  00A3               	movwf	__Umul8_16@word_mpld+1
  5550     17B4                     l2686:
  5551     17B4  1C24               	btfss	__Umul8_16@multiplier,0
  5552     17B5  2FB7               	goto	u2881
  5553     17B6  2FB8               	goto	u2880
  5554     17B7                     u2881:
  5555     17B7  2FBE               	goto	l808
  5556     17B8                     u2880:
  5557     17B8                     l2688:
  5558     17B8  0822               	movf	__Umul8_16@word_mpld,w
  5559     17B9  07A0               	addwf	__Umul8_16@product,f
  5560     17BA  1803               	skipnc
  5561     17BB  0AA1               	incf	__Umul8_16@product+1,f
  5562     17BC  0823               	movf	__Umul8_16@word_mpld+1,w
  5563     17BD  07A1               	addwf	__Umul8_16@product+1,f
  5564     17BE                     l808:
  5565     17BE  3001               	movlw	1
  5566     17BF                     u2895:
  5567     17BF  1003               	clrc
  5568     17C0  0DA2               	rlf	__Umul8_16@word_mpld,f
  5569     17C1  0DA3               	rlf	__Umul8_16@word_mpld+1,f
  5570     17C2  3EFF               	addlw	-1
  5571     17C3  1D03               	skipz
  5572     17C4  2FBF               	goto	u2895
  5573     17C5  1003               	clrc
  5574     17C6  0CA4               	rrf	__Umul8_16@multiplier,f
  5575     17C7                     l2690:
  5576     17C7  0824               	movf	__Umul8_16@multiplier,w
  5577     17C8  1D03               	btfss	3,2
  5578     17C9  2FCB               	goto	u2901
  5579     17CA  2FCC               	goto	u2900
  5580     17CB                     u2901:
  5581     17CB  2FB4               	goto	l2686
  5582     17CC                     u2900:
  5583     17CC                     l2692:
  5584     17CC  0821               	movf	__Umul8_16@product+1,w
  5585     17CD  00F3               	movwf	?__Umul8_16+1
  5586     17CE  0820               	movf	__Umul8_16@product,w
  5587     17CF  00F2               	movwf	?__Umul8_16
  5588     17D0                     l810:
  5589     17D0  0008               	return
  5590     17D1                     __end_of__Umul8_16:
  5591                           
  5592                           	psect	text11
  5593     0976                     __ptext11:	
  5594 ;; *************** function ___awmod *****************
  5595 ;; Defined at:
  5596 ;;		line 5 in file "E:\6th sem softwares\MPLAB V5\XCM\pic\sources\c99\common\awmod.c"
  5597 ;; Parameters:    Size  Location     Type
  5598 ;;  divisor         2    2[COMMON] int 
  5599 ;;  dividend        2    4[COMMON] int 
  5600 ;; Auto vars:     Size  Location     Type
  5601 ;;  sign            1    7[COMMON] unsigned char 
  5602 ;;  counter         1    6[COMMON] unsigned char 
  5603 ;; Return value:  Size  Location     Type
  5604 ;;                  2    2[COMMON] int 
  5605 ;; Registers used:
  5606 ;;		wreg, status,2, status,0, btemp+1
  5607 ;; Tracked objects:
  5608 ;;		On entry : 0/0
  5609 ;;		On exit  : 0/0
  5610 ;;		Unchanged: 0/0
  5611 ;; Data sizes:     COMMON   BANK0   BANK1   BANK3   BANK2
  5612 ;;      Params:         4       0       0       0       0
  5613 ;;      Locals:         2       0       0       0       0
  5614 ;;      Temps:          0       0       0       0       0
  5615 ;;      Totals:         6       0       0       0       0
  5616 ;;Total ram usage:        6 bytes
  5617 ;; Hardware stack levels used: 1
  5618 ;; Hardware stack levels required when called: 1
  5619 ;; This function calls:
  5620 ;;		Nothing
  5621 ;; This function is called by:
  5622 ;;		_run_program
  5623 ;; This function uses a non-reentrant model
  5624 ;;
  5625                           
  5626     0976                     ___awmod:	
  5627                           ;psect for function ___awmod
  5628                           
  5629     0976                     l2012:	
  5630                           ;incstack = 0
  5631                           ; Regs used in ___awmod: [wreg+status,2+status,0+btemp+1]
  5632                           
  5633     0976  01F7               	clrf	___awmod@sign
  5634     0977                     l2014:
  5635     0977  1FF5               	btfss	___awmod@dividend+1,7
  5636     0978  297A               	goto	u1651
  5637     0979  297B               	goto	u1650
  5638     097A                     u1651:
  5639     097A  2982               	goto	l2020
  5640     097B                     u1650:
  5641     097B                     l2016:
  5642     097B  09F4               	comf	___awmod@dividend,f
  5643     097C  09F5               	comf	___awmod@dividend+1,f
  5644     097D  0AF4               	incf	___awmod@dividend,f
  5645     097E  1903               	skipnz
  5646     097F  0AF5               	incf	___awmod@dividend+1,f
  5647     0980                     l2018:
  5648     0980  01F7               	clrf	___awmod@sign
  5649     0981  0AF7               	incf	___awmod@sign,f
  5650     0982                     l2020:
  5651     0982  1FF3               	btfss	___awmod@divisor+1,7
  5652     0983  2985               	goto	u1661
  5653     0984  2986               	goto	u1660
  5654     0985                     u1661:
  5655     0985  298B               	goto	l2024
  5656     0986                     u1660:
  5657     0986                     l2022:
  5658     0986  09F2               	comf	___awmod@divisor,f
  5659     0987  09F3               	comf	___awmod@divisor+1,f
  5660     0988  0AF2               	incf	___awmod@divisor,f
  5661     0989  1903               	skipnz
  5662     098A  0AF3               	incf	___awmod@divisor+1,f
  5663     098B                     l2024:
  5664     098B  0872               	movf	___awmod@divisor,w
  5665     098C  0473               	iorwf	___awmod@divisor+1,w
  5666     098D  1903               	btfsc	3,2
  5667     098E  2990               	goto	u1671
  5668     098F  2991               	goto	u1670
  5669     0990                     u1671:
  5670     0990  29C0               	goto	l2042
  5671     0991                     u1670:
  5672     0991                     l2026:
  5673     0991  01F6               	clrf	___awmod@counter
  5674     0992  0AF6               	incf	___awmod@counter,f
  5675     0993  299F               	goto	l2032
  5676     0994                     l2028:
  5677     0994  3001               	movlw	1
  5678     0995                     u1685:
  5679     0995  1003               	clrc
  5680     0996  0DF2               	rlf	___awmod@divisor,f
  5681     0997  0DF3               	rlf	___awmod@divisor+1,f
  5682     0998  3EFF               	addlw	-1
  5683     0999  1D03               	skipz
  5684     099A  2995               	goto	u1685
  5685     099B                     l2030:
  5686     099B  3001               	movlw	1
  5687     099C  00FF               	movwf	btemp+1
  5688     099D  087F               	movf	btemp+1,w
  5689     099E  07F6               	addwf	___awmod@counter,f
  5690     099F                     l2032:
  5691     099F  1FF3               	btfss	___awmod@divisor+1,7
  5692     09A0  29A2               	goto	u1691
  5693     09A1  29A3               	goto	u1690
  5694     09A2                     u1691:
  5695     09A2  2994               	goto	l2028
  5696     09A3                     u1690:
  5697     09A3                     l2034:
  5698     09A3  0873               	movf	___awmod@divisor+1,w
  5699     09A4  0275               	subwf	___awmod@dividend+1,w
  5700     09A5  1D03               	skipz
  5701     09A6  29A9               	goto	u1705
  5702     09A7  0872               	movf	___awmod@divisor,w
  5703     09A8  0274               	subwf	___awmod@dividend,w
  5704     09A9                     u1705:
  5705     09A9  1C03               	skipc
  5706     09AA  29AC               	goto	u1701
  5707     09AB  29AD               	goto	u1700
  5708     09AC                     u1701:
  5709     09AC  29B3               	goto	l2038
  5710     09AD                     u1700:
  5711     09AD                     l2036:
  5712     09AD  0872               	movf	___awmod@divisor,w
  5713     09AE  02F4               	subwf	___awmod@dividend,f
  5714     09AF  0873               	movf	___awmod@divisor+1,w
  5715     09B0  1C03               	skipc
  5716     09B1  03F5               	decf	___awmod@dividend+1,f
  5717     09B2  02F5               	subwf	___awmod@dividend+1,f
  5718     09B3                     l2038:
  5719     09B3  3001               	movlw	1
  5720     09B4                     u1715:
  5721     09B4  1003               	clrc
  5722     09B5  0CF3               	rrf	___awmod@divisor+1,f
  5723     09B6  0CF2               	rrf	___awmod@divisor,f
  5724     09B7  3EFF               	addlw	-1
  5725     09B8  1D03               	skipz
  5726     09B9  29B4               	goto	u1715
  5727     09BA                     l2040:
  5728     09BA  3001               	movlw	1
  5729     09BB  02F6               	subwf	___awmod@counter,f
  5730     09BC  1D03               	btfss	3,2
  5731     09BD  29BF               	goto	u1721
  5732     09BE  29C0               	goto	u1720
  5733     09BF                     u1721:
  5734     09BF  29A3               	goto	l2034
  5735     09C0                     u1720:
  5736     09C0                     l2042:
  5737     09C0  0877               	movf	___awmod@sign,w
  5738     09C1  1903               	btfsc	3,2
  5739     09C2  29C4               	goto	u1731
  5740     09C3  29C5               	goto	u1730
  5741     09C4                     u1731:
  5742     09C4  29CA               	goto	l2046
  5743     09C5                     u1730:
  5744     09C5                     l2044:
  5745     09C5  09F4               	comf	___awmod@dividend,f
  5746     09C6  09F5               	comf	___awmod@dividend+1,f
  5747     09C7  0AF4               	incf	___awmod@dividend,f
  5748     09C8  1903               	skipnz
  5749     09C9  0AF5               	incf	___awmod@dividend+1,f
  5750     09CA                     l2046:
  5751     09CA  0875               	movf	___awmod@dividend+1,w
  5752     09CB  00F3               	movwf	?___awmod+1
  5753     09CC  0874               	movf	___awmod@dividend,w
  5754     09CD  00F2               	movwf	?___awmod
  5755     09CE                     l558:
  5756     09CE  0008               	return
  5757     09CF                     __end_of___awmod:
  5758                           
  5759                           	psect	text12
  5760     0A89                     __ptext12:	
  5761 ;; *************** function ___awdiv *****************
  5762 ;; Defined at:
  5763 ;;		line 5 in file "E:\6th sem softwares\MPLAB V5\XCM\pic\sources\c99\common\awdiv.c"
  5764 ;; Parameters:    Size  Location     Type
  5765 ;;  divisor         2    2[COMMON] int 
  5766 ;;  dividend        2    4[COMMON] int 
  5767 ;; Auto vars:     Size  Location     Type
  5768 ;;  quotient        2    8[COMMON] int 
  5769 ;;  sign            1    7[COMMON] unsigned char 
  5770 ;;  counter         1    6[COMMON] unsigned char 
  5771 ;; Return value:  Size  Location     Type
  5772 ;;                  2    2[COMMON] int 
  5773 ;; Registers used:
  5774 ;;		wreg, status,2, status,0, btemp+1
  5775 ;; Tracked objects:
  5776 ;;		On entry : 0/0
  5777 ;;		On exit  : 0/0
  5778 ;;		Unchanged: 0/0
  5779 ;; Data sizes:     COMMON   BANK0   BANK1   BANK3   BANK2
  5780 ;;      Params:         4       0       0       0       0
  5781 ;;      Locals:         4       0       0       0       0
  5782 ;;      Temps:          0       0       0       0       0
  5783 ;;      Totals:         8       0       0       0       0
  5784 ;;Total ram usage:        8 bytes
  5785 ;; Hardware stack levels used: 1
  5786 ;; Hardware stack levels required when called: 1
  5787 ;; This function calls:
  5788 ;;		Nothing
  5789 ;; This function is called by:
  5790 ;;		_run_program
  5791 ;; This function uses a non-reentrant model
  5792 ;;
  5793                           
  5794     0A89                     ___awdiv:	
  5795                           ;psect for function ___awdiv
  5796                           
  5797     0A89                     l1968:	
  5798                           ;incstack = 0
  5799                           ; Regs used in ___awdiv: [wreg+status,2+status,0+btemp+1]
  5800                           
  5801     0A89  01F7               	clrf	___awdiv@sign
  5802     0A8A                     l1970:
  5803     0A8A  1FF3               	btfss	___awdiv@divisor+1,7
  5804     0A8B  2A8D               	goto	u1551
  5805     0A8C  2A8E               	goto	u1550
  5806     0A8D                     u1551:
  5807     0A8D  2A95               	goto	l1976
  5808     0A8E                     u1550:
  5809     0A8E                     l1972:
  5810     0A8E  09F2               	comf	___awdiv@divisor,f
  5811     0A8F  09F3               	comf	___awdiv@divisor+1,f
  5812     0A90  0AF2               	incf	___awdiv@divisor,f
  5813     0A91  1903               	skipnz
  5814     0A92  0AF3               	incf	___awdiv@divisor+1,f
  5815     0A93                     l1974:
  5816     0A93  01F7               	clrf	___awdiv@sign
  5817     0A94  0AF7               	incf	___awdiv@sign,f
  5818     0A95                     l1976:
  5819     0A95  1FF5               	btfss	___awdiv@dividend+1,7
  5820     0A96  2A98               	goto	u1561
  5821     0A97  2A99               	goto	u1560
  5822     0A98                     u1561:
  5823     0A98  2AA2               	goto	l1982
  5824     0A99                     u1560:
  5825     0A99                     l1978:
  5826     0A99  09F4               	comf	___awdiv@dividend,f
  5827     0A9A  09F5               	comf	___awdiv@dividend+1,f
  5828     0A9B  0AF4               	incf	___awdiv@dividend,f
  5829     0A9C  1903               	skipnz
  5830     0A9D  0AF5               	incf	___awdiv@dividend+1,f
  5831     0A9E                     l1980:
  5832     0A9E  3001               	movlw	1
  5833     0A9F  00FF               	movwf	btemp+1
  5834     0AA0  087F               	movf	btemp+1,w
  5835     0AA1  06F7               	xorwf	___awdiv@sign,f
  5836     0AA2                     l1982:
  5837     0AA2  01F8               	clrf	___awdiv@quotient
  5838     0AA3  01F9               	clrf	___awdiv@quotient+1
  5839     0AA4                     l1984:
  5840     0AA4  0872               	movf	___awdiv@divisor,w
  5841     0AA5  0473               	iorwf	___awdiv@divisor+1,w
  5842     0AA6  1903               	btfsc	3,2
  5843     0AA7  2AA9               	goto	u1571
  5844     0AA8  2AAA               	goto	u1570
  5845     0AA9                     u1571:
  5846     0AA9  2AE1               	goto	l2004
  5847     0AAA                     u1570:
  5848     0AAA                     l1986:
  5849     0AAA  01F6               	clrf	___awdiv@counter
  5850     0AAB  0AF6               	incf	___awdiv@counter,f
  5851     0AAC  2AB8               	goto	l1992
  5852     0AAD                     l1988:
  5853     0AAD  3001               	movlw	1
  5854     0AAE                     u1585:
  5855     0AAE  1003               	clrc
  5856     0AAF  0DF2               	rlf	___awdiv@divisor,f
  5857     0AB0  0DF3               	rlf	___awdiv@divisor+1,f
  5858     0AB1  3EFF               	addlw	-1
  5859     0AB2  1D03               	skipz
  5860     0AB3  2AAE               	goto	u1585
  5861     0AB4                     l1990:
  5862     0AB4  3001               	movlw	1
  5863     0AB5  00FF               	movwf	btemp+1
  5864     0AB6  087F               	movf	btemp+1,w
  5865     0AB7  07F6               	addwf	___awdiv@counter,f
  5866     0AB8                     l1992:
  5867     0AB8  1FF3               	btfss	___awdiv@divisor+1,7
  5868     0AB9  2ABB               	goto	u1591
  5869     0ABA  2ABC               	goto	u1590
  5870     0ABB                     u1591:
  5871     0ABB  2AAD               	goto	l1988
  5872     0ABC                     u1590:
  5873     0ABC                     l1994:
  5874     0ABC  3001               	movlw	1
  5875     0ABD                     u1605:
  5876     0ABD  1003               	clrc
  5877     0ABE  0DF8               	rlf	___awdiv@quotient,f
  5878     0ABF  0DF9               	rlf	___awdiv@quotient+1,f
  5879     0AC0  3EFF               	addlw	-1
  5880     0AC1  1D03               	skipz
  5881     0AC2  2ABD               	goto	u1605
  5882     0AC3  0873               	movf	___awdiv@divisor+1,w
  5883     0AC4  0275               	subwf	___awdiv@dividend+1,w
  5884     0AC5  1D03               	skipz
  5885     0AC6  2AC9               	goto	u1615
  5886     0AC7  0872               	movf	___awdiv@divisor,w
  5887     0AC8  0274               	subwf	___awdiv@dividend,w
  5888     0AC9                     u1615:
  5889     0AC9  1C03               	skipc
  5890     0ACA  2ACC               	goto	u1611
  5891     0ACB  2ACD               	goto	u1610
  5892     0ACC                     u1611:
  5893     0ACC  2AD4               	goto	l2000
  5894     0ACD                     u1610:
  5895     0ACD                     l1996:
  5896     0ACD  0872               	movf	___awdiv@divisor,w
  5897     0ACE  02F4               	subwf	___awdiv@dividend,f
  5898     0ACF  0873               	movf	___awdiv@divisor+1,w
  5899     0AD0  1C03               	skipc
  5900     0AD1  03F5               	decf	___awdiv@dividend+1,f
  5901     0AD2  02F5               	subwf	___awdiv@dividend+1,f
  5902     0AD3                     l1998:
  5903     0AD3  1478               	bsf	___awdiv@quotient,0
  5904     0AD4                     l2000:
  5905     0AD4  3001               	movlw	1
  5906     0AD5                     u1625:
  5907     0AD5  1003               	clrc
  5908     0AD6  0CF3               	rrf	___awdiv@divisor+1,f
  5909     0AD7  0CF2               	rrf	___awdiv@divisor,f
  5910     0AD8  3EFF               	addlw	-1
  5911     0AD9  1D03               	skipz
  5912     0ADA  2AD5               	goto	u1625
  5913     0ADB                     l2002:
  5914     0ADB  3001               	movlw	1
  5915     0ADC  02F6               	subwf	___awdiv@counter,f
  5916     0ADD  1D03               	btfss	3,2
  5917     0ADE  2AE0               	goto	u1631
  5918     0ADF  2AE1               	goto	u1630
  5919     0AE0                     u1631:
  5920     0AE0  2ABC               	goto	l1994
  5921     0AE1                     u1630:
  5922     0AE1                     l2004:
  5923     0AE1  0877               	movf	___awdiv@sign,w
  5924     0AE2  1903               	btfsc	3,2
  5925     0AE3  2AE5               	goto	u1641
  5926     0AE4  2AE6               	goto	u1640
  5927     0AE5                     u1641:
  5928     0AE5  2AEB               	goto	l2008
  5929     0AE6                     u1640:
  5930     0AE6                     l2006:
  5931     0AE6  09F8               	comf	___awdiv@quotient,f
  5932     0AE7  09F9               	comf	___awdiv@quotient+1,f
  5933     0AE8  0AF8               	incf	___awdiv@quotient,f
  5934     0AE9  1903               	skipnz
  5935     0AEA  0AF9               	incf	___awdiv@quotient+1,f
  5936     0AEB                     l2008:
  5937     0AEB  0879               	movf	___awdiv@quotient+1,w
  5938     0AEC  00F3               	movwf	?___awdiv+1
  5939     0AED  0878               	movf	___awdiv@quotient,w
  5940     0AEE  00F2               	movwf	?___awdiv
  5941     0AEF                     l545:
  5942     0AEF  0008               	return
  5943     0AF0                     __end_of___awdiv:
  5944                           
  5945                           	psect	text13
  5946     0A2A                     __ptext13:	
  5947 ;; *************** function _read_digital_keypad *****************
  5948 ;; Defined at:
  5949 ;;		line 10 in file "digital_keypad.c"
  5950 ;; Parameters:    Size  Location     Type
  5951 ;;  mode            1    wreg     unsigned char 
  5952 ;; Auto vars:     Size  Location     Type
  5953 ;;  mode            1    3[COMMON] unsigned char 
  5954 ;; Return value:  Size  Location     Type
  5955 ;;                  1    wreg      unsigned char 
  5956 ;; Registers used:
  5957 ;;		wreg, status,2, status,0, btemp+1
  5958 ;; Tracked objects:
  5959 ;;		On entry : 0/0
  5960 ;;		On exit  : 0/0
  5961 ;;		Unchanged: 0/0
  5962 ;; Data sizes:     COMMON   BANK0   BANK1   BANK3   BANK2
  5963 ;;      Params:         0       0       0       0       0
  5964 ;;      Locals:         1       0       0       0       0
  5965 ;;      Temps:          1       0       0       0       0
  5966 ;;      Totals:         2       0       0       0       0
  5967 ;;Total ram usage:        2 bytes
  5968 ;; Hardware stack levels used: 1
  5969 ;; Hardware stack levels required when called: 1
  5970 ;; This function calls:
  5971 ;;		Nothing
  5972 ;; This function is called by:
  5973 ;;		_main
  5974 ;; This function uses a non-reentrant model
  5975 ;;
  5976                           
  5977     0A2A                     _read_digital_keypad:	
  5978                           ;psect for function _read_digital_keypad
  5979                           
  5980                           
  5981                           ;incstack = 0
  5982                           ; Regs used in _read_digital_keypad: [wreg+status,2+status,0+btemp+1]
  5983                           ;read_digital_keypad@mode stored from wreg
  5984     0A2A  00F3               	movwf	read_digital_keypad@mode
  5985     0A2B                     l2290:
  5986                           
  5987                           ;digital_keypad.c: 10: unsigned char read_digital_keypad(unsigned char mode);digital_key
      +                          pad.c: 11: {;digital_keypad.c: 12:     static unsigned char once = 1, long_press;;digita
      +                          l_keypad.c: 13:     static unsigned char key, prev_key = 0x00;;digital_keypad.c: 15:    
      +                           if (mode == 0)
  5988     0A2B  0873               	movf	read_digital_keypad@mode,w
  5989     0A2C  1D03               	btfss	3,2
  5990     0A2D  2A2F               	goto	u2351
  5991     0A2E  2A30               	goto	u2350
  5992     0A2F                     u2351:
  5993     0A2F  2A35               	goto	l2298
  5994     0A30                     u2350:
  5995     0A30                     l2292:
  5996                           
  5997                           ;digital_keypad.c: 16:     {;digital_keypad.c: 17:         return PORTB & 0x3F;
  5998     0A30  1283               	bcf	3,5	;RP0=0, select bank0
  5999     0A31  1303               	bcf	3,6	;RP1=0, select bank0
  6000     0A32  0806               	movf	6,w	;volatile
  6001     0A33  393F               	andlw	63
  6002     0A34  2A88               	goto	l270
  6003     0A35                     l2298:
  6004                           
  6005                           ;digital_keypad.c: 20:     {;digital_keypad.c: 21:         if (((PORTB & 0x3F) != 0x3F) 
      +                          && once)
  6006     0A35  303F               	movlw	63
  6007     0A36  1283               	bcf	3,5	;RP0=0, select bank0
  6008     0A37  1303               	bcf	3,6	;RP1=0, select bank0
  6009     0A38  0506               	andwf	6,w	;volatile
  6010     0A39  00F2               	movwf	??_read_digital_keypad
  6011     0A3A  303F               	movlw	63
  6012     0A3B  0672               	xorwf	??_read_digital_keypad,w
  6013     0A3C  1903               	btfsc	3,2
  6014     0A3D  2A3F               	goto	u2361
  6015     0A3E  2A40               	goto	u2360
  6016     0A3F                     u2361:
  6017     0A3F  2A4B               	goto	l2306
  6018     0A40                     u2360:
  6019     0A40                     l2300:
  6020     0A40  0868               	movf	read_digital_keypad@once,w
  6021     0A41  1903               	btfsc	3,2
  6022     0A42  2A44               	goto	u2371
  6023     0A43  2A45               	goto	u2370
  6024     0A44                     u2371:
  6025     0A44  2A4B               	goto	l2306
  6026     0A45                     u2370:
  6027     0A45                     l2302:
  6028                           
  6029                           ;digital_keypad.c: 22:         {;digital_keypad.c: 23:             once = 0;
  6030     0A45  01E8               	clrf	read_digital_keypad@once
  6031                           
  6032                           ;digital_keypad.c: 24:             long_press = 0;
  6033     0A46  01E2               	clrf	read_digital_keypad@long_press
  6034     0A47                     l2304:
  6035                           
  6036                           ;digital_keypad.c: 25:             prev_key = PORTB & 0x3F;
  6037     0A47  0806               	movf	6,w	;volatile
  6038     0A48  393F               	andlw	63
  6039     0A49  00E0               	movwf	read_digital_keypad@prev_key
  6040                           
  6041                           ;digital_keypad.c: 26:         }
  6042     0A4A  2A87               	goto	l2336
  6043     0A4B                     l2306:
  6044     0A4B  0868               	movf	read_digital_keypad@once,w
  6045     0A4C  1D03               	btfss	3,2
  6046     0A4D  2A4F               	goto	u2381
  6047     0A4E  2A50               	goto	u2380
  6048     0A4F                     u2381:
  6049     0A4F  2A62               	goto	l2314
  6050     0A50                     u2380:
  6051     0A50                     l2308:
  6052     0A50  0806               	movf	6,w	;volatile
  6053     0A51  393F               	andlw	63
  6054     0A52  0660               	xorwf	read_digital_keypad@prev_key,w
  6055     0A53  1D03               	skipz
  6056     0A54  2A56               	goto	u2391
  6057     0A55  2A57               	goto	u2390
  6058     0A56                     u2391:
  6059     0A56  2A62               	goto	l2314
  6060     0A57                     u2390:
  6061     0A57                     l2310:
  6062     0A57  3014               	movlw	20
  6063     0A58  0262               	subwf	read_digital_keypad@long_press,w
  6064     0A59  1803               	skipnc
  6065     0A5A  2A5C               	goto	u2401
  6066     0A5B  2A5D               	goto	u2400
  6067     0A5C                     u2401:
  6068     0A5C  2A62               	goto	l2314
  6069     0A5D                     u2400:
  6070     0A5D                     l2312:
  6071                           
  6072                           ;digital_keypad.c: 29:         {;digital_keypad.c: 30:             long_press++;
  6073     0A5D  3001               	movlw	1
  6074     0A5E  00FF               	movwf	btemp+1
  6075     0A5F  087F               	movf	btemp+1,w
  6076     0A60  07E2               	addwf	read_digital_keypad@long_press,f
  6077                           
  6078                           ;digital_keypad.c: 31:         }
  6079     0A61  2A87               	goto	l2336
  6080     0A62                     l2314:
  6081     0A62  3014               	movlw	20
  6082     0A63  0662               	xorwf	read_digital_keypad@long_press,w
  6083     0A64  1D03               	btfss	3,2
  6084     0A65  2A67               	goto	u2411
  6085     0A66  2A68               	goto	u2410
  6086     0A67                     u2411:
  6087     0A67  2A6F               	goto	l2324
  6088     0A68                     u2410:
  6089     0A68                     l2316:
  6090                           
  6091                           ;digital_keypad.c: 33:         {;digital_keypad.c: 34:             long_press++;
  6092     0A68  3001               	movlw	1
  6093     0A69  00FF               	movwf	btemp+1
  6094     0A6A  087F               	movf	btemp+1,w
  6095     0A6B  07E2               	addwf	read_digital_keypad@long_press,f
  6096     0A6C                     l2318:
  6097                           
  6098                           ;digital_keypad.c: 36:             return prev_key | 0x80;
  6099     0A6C  0860               	movf	read_digital_keypad@prev_key,w
  6100     0A6D  3880               	iorlw	128
  6101     0A6E  2A88               	goto	l270
  6102     0A6F                     l2324:
  6103     0A6F  303F               	movlw	63
  6104     0A70  0506               	andwf	6,w	;volatile
  6105     0A71  00F2               	movwf	??_read_digital_keypad
  6106     0A72  303F               	movlw	63
  6107     0A73  0672               	xorwf	??_read_digital_keypad,w
  6108     0A74  1D03               	btfss	3,2
  6109     0A75  2A77               	goto	u2421
  6110     0A76  2A78               	goto	u2420
  6111     0A77                     u2421:
  6112     0A77  2A87               	goto	l2336
  6113     0A78                     u2420:
  6114     0A78                     l2326:
  6115     0A78  0868               	movf	read_digital_keypad@once,w
  6116     0A79  1D03               	btfss	3,2
  6117     0A7A  2A7C               	goto	u2431
  6118     0A7B  2A7D               	goto	u2430
  6119     0A7C                     u2431:
  6120     0A7C  2A87               	goto	l2336
  6121     0A7D                     u2430:
  6122     0A7D                     l2328:
  6123                           
  6124                           ;digital_keypad.c: 39:         {;digital_keypad.c: 40:             once = 1;
  6125     0A7D  01E8               	clrf	read_digital_keypad@once
  6126     0A7E  0AE8               	incf	read_digital_keypad@once,f
  6127     0A7F                     l2330:
  6128                           
  6129                           ;digital_keypad.c: 41:             if(long_press < 20)
  6130     0A7F  3014               	movlw	20
  6131     0A80  0262               	subwf	read_digital_keypad@long_press,w
  6132     0A81  1803               	skipnc
  6133     0A82  2A84               	goto	u2441
  6134     0A83  2A85               	goto	u2440
  6135     0A84                     u2441:
  6136     0A84  2A87               	goto	l275
  6137     0A85                     u2440:
  6138     0A85                     l2332:
  6139                           
  6140                           ;digital_keypad.c: 42:             {;digital_keypad.c: 43:                 return prev_k
      +                          ey;
  6141     0A85  0860               	movf	read_digital_keypad@prev_key,w
  6142     0A86  2A88               	goto	l270
  6143     0A87                     l275:
  6144     0A87                     l2336:
  6145                           
  6146                           ;digital_keypad.c: 48:     return 0x3F;
  6147     0A87  303F               	movlw	63
  6148     0A88                     l270:
  6149     0A88  0008               	return
  6150     0A89                     __end_of_read_digital_keypad:
  6151                           
  6152                           	psect	text14
  6153     09CF                     __ptext14:	
  6154 ;; *************** function _power_on_screen *****************
  6155 ;; Defined at:
  6156 ;;		line 128 in file "main.c"
  6157 ;; Parameters:    Size  Location     Type
  6158 ;;		None
  6159 ;; Auto vars:     Size  Location     Type
  6160 ;;  i               1    6[BANK0 ] unsigned char 
  6161 ;;  i               1    5[BANK0 ] unsigned char 
  6162 ;; Return value:  Size  Location     Type
  6163 ;;                  1    wreg      void 
  6164 ;; Registers used:
  6165 ;;		wreg, fsr0l, fsr0h, status,2, status,0, btemp+1, pclath, cstack
  6166 ;; Tracked objects:
  6167 ;;		On entry : 0/0
  6168 ;;		On exit  : 0/0
  6169 ;;		Unchanged: 0/0
  6170 ;; Data sizes:     COMMON   BANK0   BANK1   BANK3   BANK2
  6171 ;;      Params:         0       0       0       0       0
  6172 ;;      Locals:         0       2       0       0       0
  6173 ;;      Temps:          0       3       0       0       0
  6174 ;;      Totals:         0       5       0       0       0
  6175 ;;Total ram usage:        5 bytes
  6176 ;; Hardware stack levels used: 1
  6177 ;; Hardware stack levels required when called: 3
  6178 ;; This function calls:
  6179 ;;		_clcd_clear
  6180 ;;		_clcd_print
  6181 ;;		_clcd_putch
  6182 ;; This function is called by:
  6183 ;;		_main
  6184 ;; This function uses a non-reentrant model
  6185 ;;
  6186                           
  6187     09CF                     _power_on_screen:	
  6188                           ;psect for function _power_on_screen
  6189                           
  6190     09CF                     l2884:	
  6191                           ;incstack = 0
  6192                           ; Regs used in _power_on_screen: [wreg-fsr0h+status,2+status,0+btemp+1+pclath+cstack]
  6193                           
  6194                           
  6195                           ;main.c: 131: void washing_program_display(unsigned char key)
  6196     09CF  1283               	bcf	3,5	;RP0=0, select bank0
  6197     09D0  1303               	bcf	3,6	;RP1=0, select bank0
  6198     09D1  01A5               	clrf	power_on_screen@i
  6199     09D2                     l2890:
  6200                           
  6201                           ;main.c: 132:  {;main.c: 133:      if(reset_mode == 0x10)
  6202     09D2  0825               	movf	power_on_screen@i,w
  6203     09D3  3E80               	addlw	128
  6204     09D4  00A0               	movwf	clcd_putch@addr
  6205     09D5  30FF               	movlw	255
  6206     09D6  160A  118A  272C  120A  158A  	fcall	_clcd_putch
  6207     09DB                     l2892:
  6208                           
  6209                           ;main.c: 134:      {
  6210     09DB  3001               	movlw	1
  6211     09DC  00FF               	movwf	btemp+1
  6212     09DD  087F               	movf	btemp+1,w
  6213     09DE  1283               	bcf	3,5	;RP0=0, select bank0
  6214     09DF  1303               	bcf	3,6	;RP1=0, select bank0
  6215     09E0  07A5               	addwf	power_on_screen@i,f
  6216     09E1                     l2894:
  6217     09E1  3010               	movlw	16
  6218     09E2  0225               	subwf	power_on_screen@i,w
  6219     09E3  1C03               	skipc
  6220     09E4  29E6               	goto	u3301
  6221     09E5  29E7               	goto	u3300
  6222     09E6                     u3301:
  6223     09E6  29D2               	goto	l2890
  6224     09E7                     u3300:
  6225     09E7                     l2896:
  6226                           
  6227                           ;main.c: 136:          clcd_clear();
  6228     09E7  3092               	movlw	low (STR_24| (0+32768))
  6229     09E8  00F6               	movwf	clcd_print@str
  6230     09E9  3087               	movlw	high (STR_24| (0+32768))
  6231     09EA  00F7               	movwf	clcd_print@str+1
  6232     09EB  30C2               	movlw	194
  6233     09EC  00F8               	movwf	clcd_print@addr
  6234     09ED  160A  118A  27D1  120A  158A  	fcall	_clcd_print
  6235                           
  6236                           ;main.c: 137:          program_no = 0;
  6237     09F2  3021               	movlw	low (STR_20| (0+32768))
  6238     09F3  00F6               	movwf	clcd_print@str
  6239     09F4  3087               	movlw	high (STR_20| (0+32768))
  6240     09F5  00F7               	movwf	clcd_print@str+1
  6241     09F6  3091               	movlw	145
  6242     09F7  00F8               	movwf	clcd_print@addr
  6243     09F8  160A  118A  27D1  120A  158A  	fcall	_clcd_print
  6244     09FD                     l2898:
  6245                           
  6246                           ;main.c: 139: 
  6247     09FD  1283               	bcf	3,5	;RP0=0, select bank0
  6248     09FE  1303               	bcf	3,6	;RP1=0, select bank0
  6249     09FF  01A6               	clrf	power_on_screen@i_143
  6250     0A00                     l2904:
  6251                           
  6252                           ;main.c: 140: ;main.c: 141:      if (key == 0x37)
  6253     0A00  0826               	movf	power_on_screen@i_143,w
  6254     0A01  3ED0               	addlw	208
  6255     0A02  00A0               	movwf	clcd_putch@addr
  6256     0A03  30FF               	movlw	255
  6257     0A04  160A  118A  272C  120A  158A  	fcall	_clcd_putch
  6258     0A09                     l2906:
  6259                           
  6260                           ;main.c: 142:      {
  6261     0A09  3001               	movlw	1
  6262     0A0A  00FF               	movwf	btemp+1
  6263     0A0B  087F               	movf	btemp+1,w
  6264     0A0C  1283               	bcf	3,5	;RP0=0, select bank0
  6265     0A0D  1303               	bcf	3,6	;RP1=0, select bank0
  6266     0A0E  07A6               	addwf	power_on_screen@i_143,f
  6267     0A0F                     l2908:
  6268     0A0F  3010               	movlw	16
  6269     0A10  0226               	subwf	power_on_screen@i_143,w
  6270     0A11  1C03               	skipc
  6271     0A12  2A14               	goto	u3311
  6272     0A13  2A15               	goto	u3310
  6273     0A14                     u3311:
  6274     0A14  2A00               	goto	l2904
  6275     0A15                     u3310:
  6276     0A15                     l2910:
  6277                           
  6278                           ;main.c: 143:          clcd_clear();
  6279     0A15  301A               	movlw	26
  6280     0A16  1283               	bcf	3,5	;RP0=0, select bank0
  6281     0A17  1303               	bcf	3,6	;RP1=0, select bank0
  6282     0A18  00A4               	movwf	??_power_on_screen+2
  6283     0A19  305E               	movlw	94
  6284     0A1A  00A3               	movwf	??_power_on_screen+1
  6285     0A1B  306D               	movlw	109
  6286     0A1C  00A2               	movwf	??_power_on_screen
  6287     0A1D                     u3677:
  6288     0A1D  0BA2               	decfsz	??_power_on_screen,f
  6289     0A1E  2A1D               	goto	u3677
  6290     0A1F  0BA3               	decfsz	??_power_on_screen+1,f
  6291     0A20  2A1D               	goto	u3677
  6292     0A21  0BA4               	decfsz	??_power_on_screen+2,f
  6293     0A22  2A1D               	goto	u3677
  6294     0A23  2A24               	nop2
  6295     0A24                     l2912:
  6296                           
  6297                           ;main.c: 145:          if(program_no == 12)
  6298     0A24  160A  118A  270C  120A  158A  	fcall	_clcd_clear
  6299     0A29                     l103:
  6300     0A29  0008               	return
  6301     0A2A                     __end_of_power_on_screen:
  6302                           
  6303                           	psect	text15
  6304     172C                     __ptext15:	
  6305 ;; *************** function _clcd_putch *****************
  6306 ;; Defined at:
  6307 ;;		line 48 in file "clcd.c"
  6308 ;; Parameters:    Size  Location     Type
  6309 ;;  data            1    wreg     const unsigned char 
  6310 ;;  addr            1    0[BANK0 ] unsigned char 
  6311 ;; Auto vars:     Size  Location     Type
  6312 ;;  data            1    1[BANK0 ] const unsigned char 
  6313 ;; Return value:  Size  Location     Type
  6314 ;;                  1    wreg      void 
  6315 ;; Registers used:
  6316 ;;		wreg, status,2, status,0, pclath, cstack
  6317 ;; Tracked objects:
  6318 ;;		On entry : 0/0
  6319 ;;		On exit  : 0/0
  6320 ;;		Unchanged: 0/0
  6321 ;; Data sizes:     COMMON   BANK0   BANK1   BANK3   BANK2
  6322 ;;      Params:         0       1       0       0       0
  6323 ;;      Locals:         0       1       0       0       0
  6324 ;;      Temps:          0       0       0       0       0
  6325 ;;      Totals:         0       2       0       0       0
  6326 ;;Total ram usage:        2 bytes
  6327 ;; Hardware stack levels used: 1
  6328 ;; Hardware stack levels required when called: 2
  6329 ;; This function calls:
  6330 ;;		_clcd_write
  6331 ;; This function is called by:
  6332 ;;		_power_on_screen
  6333 ;;		_washing_program_display
  6334 ;;		_water_level_display
  6335 ;;		_run_program
  6336 ;; This function uses a non-reentrant model
  6337 ;;
  6338                           
  6339     172C                     _clcd_putch:	
  6340                           ;psect for function _clcd_putch
  6341                           
  6342                           
  6343                           ;incstack = 0
  6344                           ; Regs used in _clcd_putch: [wreg+status,2+status,0+pclath+cstack]
  6345                           ;clcd_putch@data stored from wreg
  6346     172C  1283               	bcf	3,5	;RP0=0, select bank0
  6347     172D  1303               	bcf	3,6	;RP1=0, select bank0
  6348     172E  00A1               	movwf	clcd_putch@data
  6349     172F                     l2704:
  6350                           
  6351                           ;clcd.c: 48: void clcd_putch(const char data, unsigned char addr);clcd.c: 49: {;clcd.c: 
      +                          50:     clcd_write(addr, 0);
  6352     172F  01F2               	clrf	clcd_write@mode
  6353     1730  0820               	movf	clcd_putch@addr,w
  6354     1731  160A  118A  2741  160A  118A  	fcall	_clcd_write
  6355                           
  6356                           ;clcd.c: 51:     clcd_write(data, 1);
  6357     1736  01F2               	clrf	clcd_write@mode
  6358     1737  0AF2               	incf	clcd_write@mode,f
  6359     1738  1283               	bcf	3,5	;RP0=0, select bank0
  6360     1739  1303               	bcf	3,6	;RP1=0, select bank0
  6361     173A  0821               	movf	clcd_putch@data,w
  6362     173B  160A  118A  2741  160A  118A  	fcall	_clcd_write
  6363     1740                     l242:
  6364     1740  0008               	return
  6365     1741                     __end_of_clcd_putch:
  6366                           
  6367                           	psect	text16
  6368     17D1                     __ptext16:	
  6369 ;; *************** function _clcd_print *****************
  6370 ;; Defined at:
  6371 ;;		line 54 in file "clcd.c"
  6372 ;; Parameters:    Size  Location     Type
  6373 ;;  str             2    6[COMMON] PTR const unsigned char 
  6374 ;;		 -> STR_47(17), STR_46(7), STR_45(12), STR_44(13), 
  6375 ;;		 -> STR_43(12), STR_42(15), STR_41(16), STR_40(5), 
  6376 ;;		 -> STR_39(6), STR_38(6), STR_37(6), STR_36(6), 
  6377 ;;		 -> STR_35(6), STR_34(5), STR_33(17), STR_32(7), 
  6378 ;;		 -> STR_31(12), STR_30(8), STR_29(7), STR_28(7), 
  6379 ;;		 -> STR_27(13), STR_26(16), STR_25(16), STR_24(12), 
  6380 ;;		 -> STR_23(10), STR_22(11), STR_21(13), STR_20(16), 
  6381 ;;		 -> STR_19(9), STR_18(15), STR_17(4), STR_16(5), 
  6382 ;;		 -> STR_15(7), STR_14(4), STR_13(5), STR_12(11), 
  6383 ;;		 -> STR_11(10), STR_10(9), STR_9(10), STR_8(10), 
  6384 ;;		 -> STR_7(8), STR_6(12), STR_5(10), STR_4(7), 
  6385 ;;		 -> STR_3(10), STR_2(6), STR_1(6), 
  6386 ;;  addr            1    8[COMMON] unsigned char 
  6387 ;; Auto vars:     Size  Location     Type
  6388 ;;		None
  6389 ;; Return value:  Size  Location     Type
  6390 ;;                  1    wreg      void 
  6391 ;; Registers used:
  6392 ;;		wreg, fsr0l, fsr0h, status,2, status,0, btemp+1, pclath, cstack
  6393 ;; Tracked objects:
  6394 ;;		On entry : 0/0
  6395 ;;		On exit  : 0/0
  6396 ;;		Unchanged: 0/0
  6397 ;; Data sizes:     COMMON   BANK0   BANK1   BANK3   BANK2
  6398 ;;      Params:         3       0       0       0       0
  6399 ;;      Locals:         0       0       0       0       0
  6400 ;;      Temps:          0       0       0       0       0
  6401 ;;      Totals:         3       0       0       0       0
  6402 ;;Total ram usage:        3 bytes
  6403 ;; Hardware stack levels used: 1
  6404 ;; Hardware stack levels required when called: 2
  6405 ;; This function calls:
  6406 ;;		_clcd_write
  6407 ;; This function is called by:
  6408 ;;		_main
  6409 ;;		_power_on_screen
  6410 ;;		_washing_program_display
  6411 ;;		_water_level_display
  6412 ;;		_run_program
  6413 ;;		_door_status_check
  6414 ;; This function uses a non-reentrant model
  6415 ;;
  6416                           
  6417     17D1                     _clcd_print:	
  6418                           ;psect for function _clcd_print
  6419                           
  6420     17D1                     l2650:	
  6421                           ;incstack = 0
  6422                           ; Regs used in _clcd_print: [wreg-fsr0h+status,2+status,0+btemp+1+pclath+cstack]
  6423                           
  6424                           
  6425                           ;clcd.c: 54: void clcd_print(const char *str, unsigned char addr);clcd.c: 55: {;clcd.c: 
      +                          56:     clcd_write(addr, 0);
  6426     17D1  01F2               	clrf	clcd_write@mode
  6427     17D2  0878               	movf	clcd_print@addr,w
  6428     17D3  160A  118A  2741  160A  118A  	fcall	_clcd_write
  6429                           
  6430                           ;clcd.c: 58:     while (*str != '\0')
  6431     17D8  2FEF               	goto	l2656
  6432     17D9                     l2652:
  6433                           
  6434                           ;clcd.c: 59:     {;clcd.c: 60:         clcd_write(*str, 1);
  6435     17D9  01F2               	clrf	clcd_write@mode
  6436     17DA  0AF2               	incf	clcd_write@mode,f
  6437     17DB  0877               	movf	clcd_print@str+1,w
  6438     17DC  00FF               	movwf	btemp+1
  6439     17DD  0876               	movf	clcd_print@str,w
  6440     17DE  0084               	movwf	4
  6441     17DF  160A  118A  2000  160A  118A  	fcall	stringtab
  6442     17E4  160A  118A  2741  160A  118A  	fcall	_clcd_write
  6443     17E9                     l2654:
  6444                           
  6445                           ;clcd.c: 61:         str++;
  6446     17E9  3001               	movlw	1
  6447     17EA  07F6               	addwf	clcd_print@str,f
  6448     17EB  1803               	skipnc
  6449     17EC  0AF7               	incf	clcd_print@str+1,f
  6450     17ED  3000               	movlw	0
  6451     17EE  07F7               	addwf	clcd_print@str+1,f
  6452     17EF                     l2656:
  6453                           
  6454                           ;clcd.c: 58:     while (*str != '\0')
  6455     17EF  0877               	movf	clcd_print@str+1,w
  6456     17F0  1283               	bcf	3,5	;RP0=0, select bank0
  6457     17F1  1303               	bcf	3,6	;RP1=0, select bank0
  6458     17F2  00FF               	movwf	btemp+1
  6459     17F3  0876               	movf	clcd_print@str,w
  6460     17F4  0084               	movwf	4
  6461     17F5  160A  118A  2000  160A  118A  	fcall	stringtab
  6462     17FA  3A00               	xorlw	0
  6463     17FB  1D03               	skipz
  6464     17FC  2FFE               	goto	u2871
  6465     17FD  2FFF               	goto	u2870
  6466     17FE                     u2871:
  6467     17FE  2FD9               	goto	l2652
  6468     17FF                     u2870:
  6469     17FF                     l248:
  6470     17FF  0008               	return
  6471     1800                     __end_of_clcd_print:
  6472                           
  6473                           	psect	text17
  6474     170C                     __ptext17:	
  6475 ;; *************** function _clcd_clear *****************
  6476 ;; Defined at:
  6477 ;;		line 65 in file "clcd.c"
  6478 ;; Parameters:    Size  Location     Type
  6479 ;;		None
  6480 ;; Auto vars:     Size  Location     Type
  6481 ;;		None
  6482 ;; Return value:  Size  Location     Type
  6483 ;;                  1    wreg      void 
  6484 ;; Registers used:
  6485 ;;		wreg, status,2, status,0, pclath, cstack
  6486 ;; Tracked objects:
  6487 ;;		On entry : 0/0
  6488 ;;		On exit  : 0/0
  6489 ;;		Unchanged: 0/0
  6490 ;; Data sizes:     COMMON   BANK0   BANK1   BANK3   BANK2
  6491 ;;      Params:         0       0       0       0       0
  6492 ;;      Locals:         0       0       0       0       0
  6493 ;;      Temps:          1       0       0       0       0
  6494 ;;      Totals:         1       0       0       0       0
  6495 ;;Total ram usage:        1 bytes
  6496 ;; Hardware stack levels used: 1
  6497 ;; Hardware stack levels required when called: 2
  6498 ;; This function calls:
  6499 ;;		_clcd_write
  6500 ;; This function is called by:
  6501 ;;		_main
  6502 ;;		_power_on_screen
  6503 ;;		_washing_program_display
  6504 ;;		_water_level_display
  6505 ;;		_run_program
  6506 ;;		_door_status_check
  6507 ;; This function uses a non-reentrant model
  6508 ;;
  6509                           
  6510     170C                     _clcd_clear:	
  6511                           ;psect for function _clcd_clear
  6512                           
  6513     170C                     l2658:	
  6514                           ;incstack = 0
  6515                           ; Regs used in _clcd_clear: [wreg+status,2+status,0+pclath+cstack]
  6516                           
  6517                           
  6518                           ;clcd.c: 67:     clcd_write(0x01, 0);
  6519     170C  01F2               	clrf	clcd_write@mode
  6520     170D  3001               	movlw	1
  6521     170E  160A  118A  2741  160A  118A  	fcall	_clcd_write
  6522     1713                     l2660:
  6523                           
  6524                           ;clcd.c: 68:     _delay((unsigned long)((100)*(20000000/4000000.0)));
  6525     1713  30A6               	movlw	166
  6526     1714  00F6               	movwf	??_clcd_clear
  6527     1715                     u3687:
  6528     1715  0BF6               	decfsz	??_clcd_clear,f
  6529     1716  2F15               	goto	u3687
  6530     1717  0000               	nop
  6531     1718                     l251:
  6532     1718  0008               	return
  6533     1719                     __end_of_clcd_clear:
  6534                           
  6535                           	psect	text18
  6536     087F                     __ptext18:	
  6537 ;; *************** function _init_config *****************
  6538 ;; Defined at:
  6539 ;;		line 17 in file "main.c"
  6540 ;; Parameters:    Size  Location     Type
  6541 ;;		None
  6542 ;; Auto vars:     Size  Location     Type
  6543 ;;		None
  6544 ;; Return value:  Size  Location     Type
  6545 ;;                  1    wreg      void 
  6546 ;; Registers used:
  6547 ;;		wreg, status,2, status,0, pclath, cstack
  6548 ;; Tracked objects:
  6549 ;;		On entry : 0/0
  6550 ;;		On exit  : 0/0
  6551 ;;		Unchanged: 0/0
  6552 ;; Data sizes:     COMMON   BANK0   BANK1   BANK3   BANK2
  6553 ;;      Params:         0       0       0       0       0
  6554 ;;      Locals:         0       0       0       0       0
  6555 ;;      Temps:          0       0       0       0       0
  6556 ;;      Totals:         0       0       0       0       0
  6557 ;;Total ram usage:        0 bytes
  6558 ;; Hardware stack levels used: 1
  6559 ;; Hardware stack levels required when called: 4
  6560 ;; This function calls:
  6561 ;;		_init_clcd
  6562 ;;		_init_digital_keypad
  6563 ;;		_init_timer2
  6564 ;; This function is called by:
  6565 ;;		_main
  6566 ;; This function uses a non-reentrant model
  6567 ;;
  6568                           
  6569     087F                     _init_config:	
  6570                           ;psect for function _init_config
  6571                           
  6572     087F                     l2872:	
  6573                           ;incstack = 0
  6574                           ; Regs used in _init_config: [wreg+status,2+status,0+pclath+cstack]
  6575                           
  6576                           
  6577                           ;main.c: 20: 
  6578     087F  160A  118A  26EA  120A  158A  	fcall	_init_digital_keypad
  6579                           
  6580                           ;main.c: 23: unsigned char reset_mode = 0;
  6581     0884  160A  118A  2701  120A  158A  	fcall	_init_clcd
  6582     0889                     l2874:
  6583                           
  6584                           ;main.c: 27: unsigned char min, sec;
  6585     0889  1683               	bsf	3,5	;RP0=1, select bank1
  6586     088A  1303               	bcf	3,6	;RP1=0, select bank1
  6587     088B  1107               	bcf	7,2	;volatile
  6588     088C                     l2876:
  6589                           
  6590                           ;main.c: 30: 
  6591     088C  1087               	bcf	7,1	;volatile
  6592     088D                     l2878:
  6593                           
  6594                           ;main.c: 31: void main(void) {
  6595     088D  1283               	bcf	3,5	;RP0=0, select bank0
  6596     088E  1303               	bcf	3,6	;RP1=0, select bank0
  6597     088F  1087               	bcf	7,1	;volatile
  6598                           
  6599                           ;main.c: 33:     unsigned char key = read_digital_keypad(1);
  6600     0890  160A  118A  26F8  120A  158A  	fcall	_init_timer2
  6601     0895                     l2880:
  6602                           
  6603                           ;main.c: 34: 
  6604     0895  170B               	bsf	11,6	;volatile
  6605     0896                     l2882:
  6606                           
  6607                           ;main.c: 35: 
  6608     0896  178B               	bsf	11,7	;volatile
  6609     0897                     l47:
  6610     0897  0008               	return
  6611     0898                     __end_of_init_config:
  6612                           
  6613                           	psect	text19
  6614     16F8                     __ptext19:	
  6615 ;; *************** function _init_timer2 *****************
  6616 ;; Defined at:
  6617 ;;		line 4 in file "timers.c"
  6618 ;; Parameters:    Size  Location     Type
  6619 ;;		None
  6620 ;; Auto vars:     Size  Location     Type
  6621 ;;		None
  6622 ;; Return value:  Size  Location     Type
  6623 ;;                  1    wreg      void 
  6624 ;; Registers used:
  6625 ;;		wreg
  6626 ;; Tracked objects:
  6627 ;;		On entry : 0/0
  6628 ;;		On exit  : 0/0
  6629 ;;		Unchanged: 0/0
  6630 ;; Data sizes:     COMMON   BANK0   BANK1   BANK3   BANK2
  6631 ;;      Params:         0       0       0       0       0
  6632 ;;      Locals:         0       0       0       0       0
  6633 ;;      Temps:          0       0       0       0       0
  6634 ;;      Totals:         0       0       0       0       0
  6635 ;;Total ram usage:        0 bytes
  6636 ;; Hardware stack levels used: 1
  6637 ;; Hardware stack levels required when called: 1
  6638 ;; This function calls:
  6639 ;;		Nothing
  6640 ;; This function is called by:
  6641 ;;		_init_config
  6642 ;; This function uses a non-reentrant model
  6643 ;;
  6644                           
  6645     16F8                     _init_timer2:	
  6646                           ;psect for function _init_timer2
  6647                           
  6648     16F8                     l1810:	
  6649                           ;incstack = 0
  6650                           ; Regs used in _init_timer2: [wreg]
  6651                           
  6652                           
  6653                           ;timers.c: 11:     PR2 = 250;
  6654     16F8  30FA               	movlw	250
  6655     16F9  1683               	bsf	3,5	;RP0=1, select bank1
  6656     16FA  1303               	bcf	3,6	;RP1=0, select bank1
  6657     16FB  0092               	movwf	18	;volatile
  6658     16FC                     l1812:
  6659                           
  6660                           ;timers.c: 14:     TMR2IE = 1;
  6661     16FC  148C               	bsf	12,1	;volatile
  6662     16FD                     l1814:
  6663                           
  6664                           ;timers.c: 17:     TMR2ON = 0;
  6665     16FD  1283               	bcf	3,5	;RP0=0, select bank0
  6666     16FE  1303               	bcf	3,6	;RP1=0, select bank0
  6667     16FF  1112               	bcf	18,2	;volatile
  6668     1700                     l288:
  6669     1700  0008               	return
  6670     1701                     __end_of_init_timer2:
  6671                           
  6672                           	psect	text20
  6673     16EA                     __ptext20:	
  6674 ;; *************** function _init_digital_keypad *****************
  6675 ;; Defined at:
  6676 ;;		line 4 in file "digital_keypad.c"
  6677 ;; Parameters:    Size  Location     Type
  6678 ;;		None
  6679 ;; Auto vars:     Size  Location     Type
  6680 ;;		None
  6681 ;; Return value:  Size  Location     Type
  6682 ;;                  1    wreg      void 
  6683 ;; Registers used:
  6684 ;;		wreg, status,2
  6685 ;; Tracked objects:
  6686 ;;		On entry : 0/0
  6687 ;;		On exit  : 0/0
  6688 ;;		Unchanged: 0/0
  6689 ;; Data sizes:     COMMON   BANK0   BANK1   BANK3   BANK2
  6690 ;;      Params:         0       0       0       0       0
  6691 ;;      Locals:         0       0       0       0       0
  6692 ;;      Temps:          0       0       0       0       0
  6693 ;;      Totals:         0       0       0       0       0
  6694 ;;Total ram usage:        0 bytes
  6695 ;; Hardware stack levels used: 1
  6696 ;; Hardware stack levels required when called: 1
  6697 ;; This function calls:
  6698 ;;		Nothing
  6699 ;; This function is called by:
  6700 ;;		_init_config
  6701 ;; This function uses a non-reentrant model
  6702 ;;
  6703                           
  6704     16EA                     _init_digital_keypad:	
  6705                           ;psect for function _init_digital_keypad
  6706                           
  6707     16EA                     l1800:	
  6708                           ;incstack = 0
  6709                           ; Regs used in _init_digital_keypad: [wreg+status,2]
  6710                           
  6711                           
  6712                           ;digital_keypad.c: 7:     TRISB = TRISB | 0x3F;
  6713     16EA  1683               	bsf	3,5	;RP0=1, select bank1
  6714     16EB  1303               	bcf	3,6	;RP1=0, select bank1
  6715     16EC  0806               	movf	6,w	;volatile
  6716     16ED  383F               	iorlw	63
  6717     16EE  0086               	movwf	6	;volatile
  6718     16EF                     l258:
  6719     16EF  0008               	return
  6720     16F0                     __end_of_init_digital_keypad:
  6721                           
  6722                           	psect	text21
  6723     1701                     __ptext21:	
  6724 ;; *************** function _init_clcd *****************
  6725 ;; Defined at:
  6726 ;;		line 36 in file "clcd.c"
  6727 ;; Parameters:    Size  Location     Type
  6728 ;;		None
  6729 ;; Auto vars:     Size  Location     Type
  6730 ;;		None
  6731 ;; Return value:  Size  Location     Type
  6732 ;;                  1    wreg      void 
  6733 ;; Registers used:
  6734 ;;		wreg, status,2, status,0, pclath, cstack
  6735 ;; Tracked objects:
  6736 ;;		On entry : 0/0
  6737 ;;		On exit  : 0/0
  6738 ;;		Unchanged: 0/0
  6739 ;; Data sizes:     COMMON   BANK0   BANK1   BANK3   BANK2
  6740 ;;      Params:         0       0       0       0       0
  6741 ;;      Locals:         0       0       0       0       0
  6742 ;;      Temps:          0       0       0       0       0
  6743 ;;      Totals:         0       0       0       0       0
  6744 ;;Total ram usage:        0 bytes
  6745 ;; Hardware stack levels used: 1
  6746 ;; Hardware stack levels required when called: 3
  6747 ;; This function calls:
  6748 ;;		_init_display_controller
  6749 ;; This function is called by:
  6750 ;;		_init_config
  6751 ;; This function uses a non-reentrant model
  6752 ;;
  6753                           
  6754     1701                     _init_clcd:	
  6755                           ;psect for function _init_clcd
  6756                           
  6757     1701                     l2696:	
  6758                           ;incstack = 0
  6759                           ; Regs used in _init_clcd: [wreg+status,2+status,0+pclath+cstack]
  6760                           
  6761                           
  6762                           ;clcd.c: 39:     TRISD = 0x00;
  6763     1701  1683               	bsf	3,5	;RP0=1, select bank1
  6764     1702  1303               	bcf	3,6	;RP1=0, select bank1
  6765     1703  0188               	clrf	8	;volatile
  6766     1704                     l2698:
  6767                           
  6768                           ;clcd.c: 42:     TRISE2 = 0;
  6769     1704  1109               	bcf	9,2	;volatile
  6770     1705                     l2700:
  6771                           
  6772                           ;clcd.c: 43:     TRISE1 = 0;
  6773     1705  1089               	bcf	9,1	;volatile
  6774     1706                     l2702:
  6775                           
  6776                           ;clcd.c: 45:     init_display_controller();
  6777     1706  120A  158A  20CD  160A  118A  	fcall	_init_display_controller
  6778     170B                     l239:
  6779     170B  0008               	return
  6780     170C                     __end_of_init_clcd:
  6781                           
  6782                           	psect	text22
  6783     08CD                     __ptext22:	
  6784 ;; *************** function _init_display_controller *****************
  6785 ;; Defined at:
  6786 ;;		line 16 in file "clcd.c"
  6787 ;; Parameters:    Size  Location     Type
  6788 ;;		None
  6789 ;; Auto vars:     Size  Location     Type
  6790 ;;		None
  6791 ;; Return value:  Size  Location     Type
  6792 ;;                  1    wreg      void 
  6793 ;; Registers used:
  6794 ;;		wreg, status,2, status,0, pclath, cstack
  6795 ;; Tracked objects:
  6796 ;;		On entry : 0/0
  6797 ;;		On exit  : 0/0
  6798 ;;		Unchanged: 0/0
  6799 ;; Data sizes:     COMMON   BANK0   BANK1   BANK3   BANK2
  6800 ;;      Params:         0       0       0       0       0
  6801 ;;      Locals:         0       0       0       0       0
  6802 ;;      Temps:          2       0       0       0       0
  6803 ;;      Totals:         2       0       0       0       0
  6804 ;;Total ram usage:        2 bytes
  6805 ;; Hardware stack levels used: 1
  6806 ;; Hardware stack levels required when called: 2
  6807 ;; This function calls:
  6808 ;;		_clcd_write
  6809 ;; This function is called by:
  6810 ;;		_init_clcd
  6811 ;; This function uses a non-reentrant model
  6812 ;;
  6813                           
  6814     08CD                     _init_display_controller:	
  6815                           ;psect for function _init_display_controller
  6816                           
  6817     08CD                     l2662:	
  6818                           ;incstack = 0
  6819                           ; Regs used in _init_display_controller: [wreg+status,2+status,0+pclath+cstack]
  6820                           
  6821                           
  6822                           ;clcd.c: 19:     _delay((unsigned long)((30)*(20000000/4000.0)));
  6823     08CD  30C3               	movlw	195
  6824     08CE  00F7               	movwf	??_init_display_controller+1
  6825     08CF  30CD               	movlw	205
  6826     08D0  00F6               	movwf	??_init_display_controller
  6827     08D1                     u3697:
  6828     08D1  0BF6               	decfsz	??_init_display_controller,f
  6829     08D2  28D1               	goto	u3697
  6830     08D3  0BF7               	decfsz	??_init_display_controller+1,f
  6831     08D4  28D1               	goto	u3697
  6832     08D5                     l2664:
  6833                           
  6834                           ;clcd.c: 22:     clcd_write(0x33, 0);
  6835     08D5  01F2               	clrf	clcd_write@mode
  6836     08D6  3033               	movlw	51
  6837     08D7  160A  118A  2741  120A  158A  	fcall	_clcd_write
  6838     08DC                     l2666:
  6839                           
  6840                           ;clcd.c: 23:     _delay((unsigned long)((4100)*(20000000/4000000.0)));
  6841     08DC  301B               	movlw	27
  6842     08DD  00F7               	movwf	??_init_display_controller+1
  6843     08DE  309E               	movlw	158
  6844     08DF  00F6               	movwf	??_init_display_controller
  6845     08E0                     u3707:
  6846     08E0  0BF6               	decfsz	??_init_display_controller,f
  6847     08E1  28E0               	goto	u3707
  6848     08E2  0BF7               	decfsz	??_init_display_controller+1,f
  6849     08E3  28E0               	goto	u3707
  6850     08E4  0000               	nop
  6851                           
  6852                           ;clcd.c: 24:     clcd_write(0x33, 0);
  6853     08E5  01F2               	clrf	clcd_write@mode
  6854     08E6  3033               	movlw	51
  6855     08E7  160A  118A  2741  120A  158A  	fcall	_clcd_write
  6856     08EC                     l2668:
  6857                           
  6858                           ;clcd.c: 25:      _delay((unsigned long)((100)*(20000000/4000000.0)));
  6859     08EC  30A6               	movlw	166
  6860     08ED  00F6               	movwf	??_init_display_controller
  6861     08EE                     u3717:
  6862     08EE  0BF6               	decfsz	??_init_display_controller,f
  6863     08EF  28EE               	goto	u3717
  6864     08F0  0000               	nop
  6865     08F1                     l2670:
  6866                           
  6867                           ;clcd.c: 26:     clcd_write(0x33, 0);
  6868     08F1  01F2               	clrf	clcd_write@mode
  6869     08F2  3033               	movlw	51
  6870     08F3  160A  118A  2741  120A  158A  	fcall	_clcd_write
  6871     08F8                     l2672:
  6872                           
  6873                           ;clcd.c: 27:     _delay((unsigned long)((1)*(20000000/4000000.0)));
  6874     08F8  28F9               	nop2	;2 cycle nop
  6875     08F9  28FA               	nop2	;2 cycle nop
  6876     08FA  0000               	nop
  6877     08FB                     l2674:
  6878                           
  6879                           ;clcd.c: 28:     clcd_write(0x30, 0);
  6880     08FB  01F2               	clrf	clcd_write@mode
  6881     08FC  3030               	movlw	48
  6882     08FD  160A  118A  2741  120A  158A  	fcall	_clcd_write
  6883     0902                     l2676:
  6884                           
  6885                           ;clcd.c: 29:     _delay((unsigned long)((100)*(20000000/4000000.0)));
  6886     0902  30A6               	movlw	166
  6887     0903  00F6               	movwf	??_init_display_controller
  6888     0904                     u3727:
  6889     0904  0BF6               	decfsz	??_init_display_controller,f
  6890     0905  2904               	goto	u3727
  6891     0906  0000               	nop
  6892                           
  6893                           ;clcd.c: 30:     clcd_write(0x01, 0);
  6894     0907  01F2               	clrf	clcd_write@mode
  6895     0908  3001               	movlw	1
  6896     0909  160A  118A  2741  120A  158A  	fcall	_clcd_write
  6897     090E                     l2678:
  6898                           
  6899                           ;clcd.c: 31:     _delay((unsigned long)((100)*(20000000/4000000.0)));
  6900     090E  30A6               	movlw	166
  6901     090F  00F6               	movwf	??_init_display_controller
  6902     0910                     u3737:
  6903     0910  0BF6               	decfsz	??_init_display_controller,f
  6904     0911  2910               	goto	u3737
  6905     0912  0000               	nop
  6906     0913                     l2680:
  6907                           
  6908                           ;clcd.c: 32:     clcd_write(0x0C, 0);
  6909     0913  01F2               	clrf	clcd_write@mode
  6910     0914  300C               	movlw	12
  6911     0915  160A  118A  2741  120A  158A  	fcall	_clcd_write
  6912                           
  6913                           ;clcd.c: 33:     _delay((unsigned long)((100)*(20000000/4000000.0)));
  6914     091A  30A6               	movlw	166
  6915     091B  00F6               	movwf	??_init_display_controller
  6916     091C                     u3747:
  6917     091C  0BF6               	decfsz	??_init_display_controller,f
  6918     091D  291C               	goto	u3747
  6919     091E  0000               	nop
  6920     091F                     l236:
  6921     091F  0008               	return
  6922     0920                     __end_of_init_display_controller:
  6923                           
  6924                           	psect	text23
  6925     1741                     __ptext23:	
  6926 ;; *************** function _clcd_write *****************
  6927 ;; Defined at:
  6928 ;;		line 4 in file "clcd.c"
  6929 ;; Parameters:    Size  Location     Type
  6930 ;;  byte            1    wreg     unsigned char 
  6931 ;;  mode            1    2[COMMON] unsigned char 
  6932 ;; Auto vars:     Size  Location     Type
  6933 ;;  byte            1    5[COMMON] unsigned char 
  6934 ;; Return value:  Size  Location     Type
  6935 ;;                  1    wreg      void 
  6936 ;; Registers used:
  6937 ;;		wreg
  6938 ;; Tracked objects:
  6939 ;;		On entry : 0/0
  6940 ;;		On exit  : 0/0
  6941 ;;		Unchanged: 0/0
  6942 ;; Data sizes:     COMMON   BANK0   BANK1   BANK3   BANK2
  6943 ;;      Params:         1       0       0       0       0
  6944 ;;      Locals:         1       0       0       0       0
  6945 ;;      Temps:          2       0       0       0       0
  6946 ;;      Totals:         4       0       0       0       0
  6947 ;;Total ram usage:        4 bytes
  6948 ;; Hardware stack levels used: 1
  6949 ;; Hardware stack levels required when called: 1
  6950 ;; This function calls:
  6951 ;;		Nothing
  6952 ;; This function is called by:
  6953 ;;		_init_display_controller
  6954 ;;		_clcd_putch
  6955 ;;		_clcd_print
  6956 ;;		_clcd_clear
  6957 ;; This function uses a non-reentrant model
  6958 ;;
  6959                           
  6960     1741                     _clcd_write:	
  6961                           ;psect for function _clcd_write
  6962                           
  6963                           
  6964                           ;incstack = 0
  6965                           ; Regs used in _clcd_write: [wreg]
  6966                           ;clcd_write@byte stored from wreg
  6967     1741  00F5               	movwf	clcd_write@byte
  6968     1742                     l2642:
  6969                           
  6970                           ;clcd.c: 4: static void clcd_write(unsigned char byte, unsigned char mode);clcd.c: 5: {;
      +                          clcd.c: 6:     RE2 = (__bit)mode;
  6971     1742  1872               	btfsc	clcd_write@mode,0
  6972     1743  2F45               	goto	u2851
  6973     1744  2F49               	goto	u2850
  6974     1745                     u2851:
  6975     1745  1283               	bcf	3,5	;RP0=0, select bank0
  6976     1746  1303               	bcf	3,6	;RP1=0, select bank0
  6977     1747  1509               	bsf	9,2	;volatile
  6978     1748  2F4C               	goto	u2864
  6979     1749                     u2850:
  6980     1749  1283               	bcf	3,5	;RP0=0, select bank0
  6981     174A  1303               	bcf	3,6	;RP1=0, select bank0
  6982     174B  1109               	bcf	9,2	;volatile
  6983     174C                     u2864:
  6984     174C                     l2644:
  6985                           
  6986                           ;clcd.c: 7:     PORTD = byte;
  6987     174C  0875               	movf	clcd_write@byte,w
  6988     174D  0088               	movwf	8	;volatile
  6989     174E                     l2646:
  6990                           
  6991                           ;clcd.c: 9:     RE1 = 1;
  6992     174E  1489               	bsf	9,1	;volatile
  6993                           
  6994                           ;clcd.c: 10:     _delay((unsigned long)((100)*(20000000/4000000.0)));
  6995     174F  30A6               	movlw	166
  6996     1750  00F3               	movwf	??_clcd_write
  6997     1751                     u3757:
  6998     1751  0BF3               	decfsz	??_clcd_write,f
  6999     1752  2F51               	goto	u3757
  7000     1753  0000               	nop
  7001     1754                     l2648:
  7002                           
  7003                           ;clcd.c: 11:     RE1 = 0;
  7004     1754  1283               	bcf	3,5	;RP0=0, select bank0
  7005     1755  1303               	bcf	3,6	;RP1=0, select bank0
  7006     1756  1089               	bcf	9,1	;volatile
  7007                           
  7008                           ;clcd.c: 13:     _delay((unsigned long)((4100)*(20000000/4000000.0)));
  7009     1757  301B               	movlw	27
  7010     1758  00F4               	movwf	??_clcd_write+1
  7011     1759  309E               	movlw	158
  7012     175A  00F3               	movwf	??_clcd_write
  7013     175B                     u3767:
  7014     175B  0BF3               	decfsz	??_clcd_write,f
  7015     175C  2F5B               	goto	u3767
  7016     175D  0BF4               	decfsz	??_clcd_write+1,f
  7017     175E  2F5B               	goto	u3767
  7018     175F  0000               	nop
  7019     1760                     l233:
  7020     1760  0008               	return
  7021     1761                     __end_of_clcd_write:
  7022                           
  7023                           	psect	text24
  7024     0898                     __ptext24:	
  7025 ;; *************** function _isr *****************
  7026 ;; Defined at:
  7027 ;;		line 7 in file "isr.c"
  7028 ;; Parameters:    Size  Location     Type
  7029 ;;		None
  7030 ;; Auto vars:     Size  Location     Type
  7031 ;;		None
  7032 ;; Return value:  Size  Location     Type
  7033 ;;                  1    wreg      void 
  7034 ;; Registers used:
  7035 ;;		wreg, status,2, status,0
  7036 ;; Tracked objects:
  7037 ;;		On entry : 0/0
  7038 ;;		On exit  : 0/0
  7039 ;;		Unchanged: 0/0
  7040 ;; Data sizes:     COMMON   BANK0   BANK1   BANK3   BANK2
  7041 ;;      Params:         0       0       0       0       0
  7042 ;;      Locals:         0       0       0       0       0
  7043 ;;      Temps:          2       0       0       0       0
  7044 ;;      Totals:         2       0       0       0       0
  7045 ;;Total ram usage:        2 bytes
  7046 ;; Hardware stack levels used: 1
  7047 ;; This function calls:
  7048 ;;		Nothing
  7049 ;; This function is called by:
  7050 ;;		Interrupt level 1
  7051 ;; This function uses a non-reentrant model
  7052 ;;
  7053                           
  7054     0898                     _isr:	
  7055                           ;psect for function _isr
  7056                           
  7057     0898                     i1l2622:
  7058                           
  7059                           ;isr.c: 9:     static unsigned int count = 0;;isr.c: 11:     if (TMR2IF == 1)
  7060     0898  1283               	bcf	3,5	;RP0=0, select bank0
  7061     0899  1303               	bcf	3,6	;RP1=0, select bank0
  7062     089A  1C8C               	btfss	12,1	;volatile
  7063     089B  289D               	goto	u280_21
  7064     089C  289E               	goto	u280_20
  7065     089D                     u280_21:
  7066     089D  28C6               	goto	i1l306
  7067     089E                     u280_20:
  7068     089E                     i1l2624:
  7069                           
  7070                           ;isr.c: 12:     {;isr.c: 13:         if (++count == 20000)
  7071     089E  3001               	movlw	1
  7072     089F  07D6               	addwf	isr@count,f
  7073     08A0  1803               	skipnc
  7074     08A1  0AD7               	incf	isr@count+1,f
  7075     08A2  3000               	movlw	0
  7076     08A3  07D7               	addwf	isr@count+1,f
  7077     08A4  3020               	movlw	32
  7078     08A5  0656               	xorwf	isr@count,w
  7079     08A6  304E               	movlw	78
  7080     08A7  1903               	skipnz
  7081     08A8  0657               	xorwf	isr@count+1,w
  7082     08A9  1D03               	btfss	3,2
  7083     08AA  28AC               	goto	u281_21
  7084     08AB  28AD               	goto	u281_20
  7085     08AC                     u281_21:
  7086     08AC  28C5               	goto	i1l2640
  7087     08AD                     u281_20:
  7088     08AD                     i1l2626:
  7089                           
  7090                           ;isr.c: 14:         {;isr.c: 15:             count = 0;
  7091     08AD  01D6               	clrf	isr@count
  7092     08AE  01D7               	clrf	isr@count+1
  7093     08AF                     i1l2628:
  7094                           
  7095                           ;isr.c: 16:             if(sec > 0)
  7096     08AF  0863               	movf	_sec,w
  7097     08B0  1903               	btfsc	3,2
  7098     08B1  28B3               	goto	u282_21
  7099     08B2  28B4               	goto	u282_20
  7100     08B3                     u282_21:
  7101     08B3  28B7               	goto	i1l2632
  7102     08B4                     u282_20:
  7103     08B4                     i1l2630:
  7104                           
  7105                           ;isr.c: 17:             {;isr.c: 18:                 sec--;
  7106     08B4  3001               	movlw	1
  7107     08B5  02E3               	subwf	_sec,f
  7108                           
  7109                           ;isr.c: 19:             }
  7110     08B6  28C5               	goto	i1l2640
  7111     08B7                     i1l2632:
  7112     08B7  0863               	movf	_sec,w
  7113     08B8  1D03               	btfss	3,2
  7114     08B9  28BB               	goto	u283_21
  7115     08BA  28BC               	goto	u283_20
  7116     08BB                     u283_21:
  7117     08BB  28C5               	goto	i1l2640
  7118     08BC                     u283_20:
  7119     08BC                     i1l2634:
  7120     08BC  0864               	movf	_min,w
  7121     08BD  1903               	btfsc	3,2
  7122     08BE  28C0               	goto	u284_21
  7123     08BF  28C1               	goto	u284_20
  7124     08C0                     u284_21:
  7125     08C0  28C5               	goto	i1l2640
  7126     08C1                     u284_20:
  7127     08C1                     i1l2636:
  7128                           
  7129                           ;isr.c: 21:             {;isr.c: 22:                 min--;
  7130     08C1  3001               	movlw	1
  7131     08C2  02E4               	subwf	_min,f
  7132     08C3                     i1l2638:
  7133                           
  7134                           ;isr.c: 23:                 sec = 59;
  7135     08C3  303B               	movlw	59
  7136     08C4  00E3               	movwf	_sec
  7137     08C5                     i1l2640:
  7138                           
  7139                           ;isr.c: 28:         TMR2IF = 0;
  7140     08C5  108C               	bcf	12,1	;volatile
  7141     08C6                     i1l306:
  7142     08C6  0871               	movf	??_isr+1,w
  7143     08C7  008A               	movwf	10
  7144     08C8  0E70               	swapf	??_isr,w
  7145     08C9  0083               	movwf	3
  7146     08CA  0EFE               	swapf	btemp,f
  7147     08CB  0E7E               	swapf	btemp,w
  7148     08CC  0009               	retfie
  7149     08CD                     __end_of_isr:
  7150     007E                     btemp	set	126	;btemp
  7151     007E                     wtemp0	set	126
  7152                           
  7153                           	psect	intentry
  7154     0004                     __pintentry:	
  7155                           ;incstack = 0
  7156                           ; Regs used in _isr: [wreg+status,2+status,0]
  7157                           
  7158     0004                     interrupt_function:
  7159     007E                     saved_w	set	btemp
  7160     0004  00FE               	movwf	btemp
  7161     0005  0E03               	swapf	3,w
  7162     0006  00F0               	movwf	??_isr
  7163     0007  080A               	movf	10,w
  7164     0008  00F1               	movwf	??_isr+1
  7165     0009  120A  158A  2898   	ljmp	_isr
  7166                           
  7167                           	psect	config
  7168                           
  7169                           ;Config register CONFIG @ 0x2007
  7170                           ;	Oscillator Selection bits
  7171                           ;	FOSC = 0x3, unprogrammed default
  7172                           ;	Watchdog Timer Enable bit
  7173                           ;	WDTE = OFF, WDT disabled
  7174                           ;	Power-up Timer Enable bit
  7175                           ;	PWRTE = 0x1, unprogrammed default
  7176                           ;	Brown-out Reset Enable bit
  7177                           ;	BOREN = 0x1, unprogrammed default
  7178                           ;	Low-Voltage (Single-Supply) In-Circuit Serial Programming Enable bit
  7179                           ;	LVP = 0x1, unprogrammed default
  7180                           ;	Data EEPROM Memory Code Protection bit
  7181                           ;	CPD = 0x1, unprogrammed default
  7182                           ;	Flash Program Memory Write Enable bits
  7183                           ;	WRT = 0x3, unprogrammed default
  7184                           ;	In-Circuit Debugger Mode bit
  7185                           ;	DEBUG = 0x1, unprogrammed default
  7186                           ;	Flash Program Memory Code Protection bit
  7187                           ;	CP = 0x1, unprogrammed default
  7188     2007                     	org	8199
  7189     2007  3FFB               	dw	16379

Data Sizes:
    Strings     380
    Constant    0
    Data        36
    BSS         20
    Persistent  0
    Stack       0

Auto Spaces:
    Space          Size  Autos    Used
    COMMON           14     10      12
    BANK0            80     54      74
    BANK1            80      0      34
    BANK3            96      0       0
    BANK2            96      0       0

Pointer List with Targets:

    clcd_print@str	PTR const unsigned char  size(2) Largest target is 17
		 -> STR_1(CODE[6]), STR_10(CODE[9]), STR_11(CODE[10]), STR_12(CODE[11]), 
		 -> STR_13(CODE[5]), STR_14(CODE[4]), STR_15(CODE[7]), STR_16(CODE[5]), 
		 -> STR_17(CODE[4]), STR_18(CODE[15]), STR_19(CODE[9]), STR_2(CODE[6]), 
		 -> STR_20(CODE[16]), STR_21(CODE[13]), STR_22(CODE[11]), STR_23(CODE[10]), 
		 -> STR_24(CODE[12]), STR_25(CODE[16]), STR_26(CODE[16]), STR_27(CODE[13]), 
		 -> STR_28(CODE[7]), STR_29(CODE[7]), STR_3(CODE[10]), STR_30(CODE[8]), 
		 -> STR_31(CODE[12]), STR_32(CODE[7]), STR_33(CODE[17]), STR_34(CODE[5]), 
		 -> STR_35(CODE[6]), STR_36(CODE[6]), STR_37(CODE[6]), STR_38(CODE[6]), 
		 -> STR_39(CODE[6]), STR_4(CODE[7]), STR_40(CODE[5]), STR_41(CODE[16]), 
		 -> STR_42(CODE[15]), STR_43(CODE[12]), STR_44(CODE[13]), STR_45(CODE[12]), 
		 -> STR_46(CODE[7]), STR_47(CODE[17]), STR_5(CODE[10]), STR_6(CODE[12]), 
		 -> STR_7(CODE[8]), STR_8(CODE[10]), STR_9(CODE[10]), 

    washing_prog	PTR unsigned char [12] size(2) Largest target is 12
		 -> STR_1(CODE[6]), STR_10(CODE[9]), STR_11(CODE[10]), STR_12(CODE[11]), 
		 -> STR_2(CODE[6]), STR_3(CODE[10]), STR_4(CODE[7]), STR_5(CODE[10]), 
		 -> STR_6(CODE[12]), STR_7(CODE[8]), STR_8(CODE[10]), STR_9(CODE[10]), 

    water_level_options	PTR unsigned char [5] size(2) Largest target is 7
		 -> STR_13(CODE[5]), STR_14(CODE[4]), STR_15(CODE[7]), STR_16(CODE[5]), 
		 -> STR_17(CODE[4]), 


Critical Paths under _main in COMMON

    _run_program->___awdiv
    _run_program->___xxtofl
    _door_status_check->_clcd_print
    ___fltol->___xxtofl
    ___flmul->___xxtofl
    _clcd_putch->___awdiv
    _clcd_print->_clcd_write
    _clcd_clear->_clcd_write
    _init_clcd->_init_display_controller
    _init_display_controller->_clcd_write

Critical Paths under _isr in COMMON

    None.

Critical Paths under _main in BANK0

    _main->_run_program
    _water_level_display->_clcd_putch
    _washing_program_display->_clcd_putch
    _run_program->___fltol
    ___fltol->___flmul
    ___flmul->___xxtofl
    _power_on_screen->_clcd_putch

Critical Paths under _isr in BANK0

    None.

Critical Paths under _main in BANK1

    None.

Critical Paths under _isr in BANK1

    None.

Critical Paths under _main in BANK3

    None.

Critical Paths under _isr in BANK3

    None.

Critical Paths under _main in BANK2

    None.

Critical Paths under _isr in BANK2

    None.

Call Graph Tables:

 ---------------------------------------------------------------------------------
 (Depth) Function   	        Calls       Base Space   Used Autos Params    Refs
 ---------------------------------------------------------------------------------
 (0) _main                                                 3     3      0   85531
                                             51 BANK0      3     3      0
                         _clcd_clear
                         _clcd_print
                        _init_config
                    _power_on_screen
                _read_digital_keypad
                        _run_program
                          _set_timer
            _washing_program_display
                _water_level_display
 ---------------------------------------------------------------------------------
 (1) _water_level_display                                  3     3      0   13425
                                              2 BANK0      3     3      0
                         _clcd_clear
                         _clcd_print
                         _clcd_putch
 ---------------------------------------------------------------------------------
 (1) _washing_program_display                              3     3      0   13425
                                              2 BANK0      3     3      0
                         _clcd_clear
                         _clcd_print
                         _clcd_putch
 ---------------------------------------------------------------------------------
 (1) _run_program                                          9     9      0   32707
                                             42 BANK0      9     9      0
                            ___awdiv
                            ___awmod
                            ___flmul
                            ___fltol
                             ___wmul
                           ___xxtofl
                         _clcd_clear
                         _clcd_print
                         _clcd_putch
                  _door_status_check
                          _set_timer
 ---------------------------------------------------------------------------------
 (1) _set_timer                                            0     0      0       0
 ---------------------------------------------------------------------------------
 (2) _door_status_check                                    0     0      0   11020
                         _clcd_clear
                         _clcd_print
 ---------------------------------------------------------------------------------
 (2) ___xxtofl                                            14    10      4     550
                                              2 COMMON     8     4      4
                                              0 BANK0      6     6      0
 ---------------------------------------------------------------------------------
 (2) ___wmul                                               6     2      4    1696
                                              2 COMMON     6     2      4
 ---------------------------------------------------------------------------------
 (2) ___fltol                                             10     6      4     457
                                             32 BANK0     10     6      4
                            ___flmul (ARG)
                           ___xxtofl (ARG)
 ---------------------------------------------------------------------------------
 (2) ___flmul                                             26    18      8    3713
                                              6 BANK0     26    18      8
                          __Umul8_16
                           ___xxtofl (ARG)
 ---------------------------------------------------------------------------------
 (3) __Umul8_16                                            9     7      2     980
                                              2 COMMON     4     2      2
                                              0 BANK0      5     5      0
 ---------------------------------------------------------------------------------
 (2) ___awmod                                              6     2      4     752
                                              2 COMMON     6     2      4
 ---------------------------------------------------------------------------------
 (2) ___awdiv                                              8     4      4    1060
                                              2 COMMON     8     4      4
 ---------------------------------------------------------------------------------
 (1) _read_digital_keypad                                  2     2      0      22
                                              2 COMMON     2     2      0
 ---------------------------------------------------------------------------------
 (1) _power_on_screen                                      5     5      0   13592
                                              2 BANK0      5     5      0
                         _clcd_clear
                         _clcd_print
                         _clcd_putch
 ---------------------------------------------------------------------------------
 (2) _clcd_putch                                           2     1      1    2374
                                              0 BANK0      2     1      1
                            ___awdiv (ARG)
                            ___awmod (ARG)
                         _clcd_write
 ---------------------------------------------------------------------------------
 (2) _clcd_print                                           3     0      3    9968
                                              6 COMMON     3     0      3
                         _clcd_write
 ---------------------------------------------------------------------------------
 (2) _clcd_clear                                           1     1      0    1052
                                              6 COMMON     1     1      0
                         _clcd_write
 ---------------------------------------------------------------------------------
 (1) _init_config                                          0     0      0    1052
                          _init_clcd
                _init_digital_keypad
                        _init_timer2
 ---------------------------------------------------------------------------------
 (2) _init_timer2                                          0     0      0       0
 ---------------------------------------------------------------------------------
 (2) _init_digital_keypad                                  0     0      0       0
 ---------------------------------------------------------------------------------
 (2) _init_clcd                                            0     0      0    1052
            _init_display_controller
 ---------------------------------------------------------------------------------
 (3) _init_display_controller                              2     2      0    1052
                                              6 COMMON     2     2      0
                         _clcd_write
 ---------------------------------------------------------------------------------
 (3) _clcd_write                                           4     3      1    1052
                                              2 COMMON     4     3      1
 ---------------------------------------------------------------------------------
 Estimated maximum stack depth 3
 ---------------------------------------------------------------------------------
 (Depth) Function   	        Calls       Base Space   Used Autos Params    Refs
 ---------------------------------------------------------------------------------
 (5) _isr                                                  2     2      0       0
                                              0 COMMON     2     2      0
 ---------------------------------------------------------------------------------
 Estimated maximum stack depth 5
 ---------------------------------------------------------------------------------

 Call Graph Graphs:

 _main (ROOT)
   _clcd_clear
     _clcd_write
   _clcd_print
     _clcd_write
   _init_config
     _init_clcd
       _init_display_controller
         _clcd_write
     _init_digital_keypad
     _init_timer2
   _power_on_screen
     _clcd_clear
     _clcd_print
     _clcd_putch
       ___awdiv (ARG)
       ___awmod (ARG)
       _clcd_write (ARG)
   _read_digital_keypad
   _run_program
     ___awdiv
     ___awmod
     ___flmul
       __Umul8_16
       ___xxtofl (ARG)
     ___fltol
       ___flmul (ARG)
       ___xxtofl (ARG)
     ___wmul
     ___xxtofl
     _clcd_clear
     _clcd_print
     _clcd_putch
     _door_status_check
       _clcd_clear
       _clcd_print
     _set_timer
   _set_timer
   _washing_program_display
     _clcd_clear
     _clcd_print
     _clcd_putch
   _water_level_display
     _clcd_clear
     _clcd_print
     _clcd_putch

 _isr (ROOT)

 Address spaces:
Name               Size   Autos  Total    Cost      Usage
BANK3               60      0       0       9        0.0%
BITBANK3            60      0       0       8        0.0%
SFR3                 0      0       0       4        0.0%
BITSFR3              0      0       0       4        0.0%
BANK2               60      0       0      11        0.0%
BITBANK2            60      0       0      10        0.0%
SFR2                 0      0       0       5        0.0%
BITSFR2              0      0       0       5        0.0%
BANK1               50      0      22       7       42.5%
BITBANK1            50      0       0       6        0.0%
SFR1                 0      0       0       2        0.0%
BITSFR1              0      0       0       2        0.0%
BANK0               50     36      4A       5       92.5%
BITBANK0            50      0       0       4        0.0%
SFR0                 0      0       0       1        0.0%
BITSFR0              0      0       0       1        0.0%
COMMON               E      A       C       1       85.7%
BITCOMMON            E      0       0       0        0.0%
CODE                 0      0       0       0        0.0%
DATA                 0      0      78      12        0.0%
ABS                  0      0      78       3        0.0%
NULL                 0      0       0       0        0.0%
STACK                0      0       0       2        0.0%
EEDATA             100      0       0       0        0.0%


Microchip Technology PIC Macro Assembler V2.46 build 20240104201356 
Symbol Table                                                                                   Tue Apr 02 11:24:42 2024

                              pc 0002                   clcd_print@addr 0078                               l47 0897  
                   ___awdiv@sign 0077                               fsr 0004              ___wmul@multiplicand 0074  
         water_level_display@key 0024              __Umul8_16@word_mpld 0022                              l103 0A29  
                            l114 0D17                              l213 0944                              l125 0E0D  
                            l216 0975                              l208 0380                              l233 1760  
                            l209 03B6                              l242 1740                              l251 1718  
                            l236 091F                              l172 0F9E                              l270 0A88  
                            l239 170B                              l248 17FF                              l184 0FFF  
                            l258 16EF                              l275 0A87                              l288 1700  
                            l392 178F                              l545 0AEF                              l810 17D0  
                            l394 17A7                              l558 09CE                              l808 17BE  
                            l593 0B52                              l833 0B8C                              l586 0B67  
                            l835 0C21                              l596 0B67                              l846 0BEB  
                            l847 0BF7                              l795 066B                              l789 06FB  
                            _GIE 005F                              _RB0 0030                              _RC1 0039  
                            _RC2 003A                              _RE1 0049                              _RE2 004A  
                            _PR2 0092                              _min 0064                              _sec 0063  
                            _isr 0898                   clcd_putch@addr 0020                              fsr0 0004  
                 clcd_putch@data 0021                              indf 0000                     ___awmod@sign 0077  
                   ___flmul@aexp 0034                     ___flmul@bexp 0039                     ___flmul@sign 0033  
                   ___flmul@temp 003E                     ___flmul@prod 003A                      _run_program 0037  
                   ___fltol@exp1 0049                             l2000 0AD4                             l2002 0ADB  
                           l2004 0AE1                             l2020 0982                             l2012 0976  
                           l2006 0AE6                             l2030 099B                             l2022 0986  
                           l2014 0977                             l2008 0AEB                             l2040 09BA  
                           l2032 099F                             l2024 098B                             l2016 097B  
                           l3000 00FD                             l2034 09A3                             l2026 0991  
                           l2042 09C0                             l2018 0980                             l2050 0AF0  
                           l3010 0131                             l3002 010B                             l2300 0A40  
                           l2044 09C5                             l2036 09AD                             l2028 0994  
                           l2060 0B18                             l2052 0AFB                             l3020 01DF  
                           l3012 0151                             l3004 0110                             l3100 0E2F  
                           l2310 0A57                             l2302 0A45                             l2046 09CA  
                           l2038 09B3                             l2062 0B20                             l2230 0B6B  
                           l3030 0204                             l3014 018C                             l3006 011B  
                           l3022 01E0                             l3110 0E5F                             l3102 0E3B  
                           l2312 0A5D                             l2304 0A47                             l2072 0B2E  
                           l2064 0B22                             l2056 0B04                             l2232 0B70  
                           l3040 0255                             l3032 020A                             l3024 01E6  
                           l3016 01C7                             l3008 0126                             l3120 0E7E  
                           l3112 0E68                             l3104 0E41            ??_read_digital_keypad 0072  
                           l2330 0A7F                             l2314 0A62                             l2306 0A4B  
                           l2082 0B47                             l2074 0B37                             l2066 0B26  
                           l2058 0B17                             l2250 0BB4                             l2242 0B9D  
                           l2234 0B74                             l3050 02C1                             l3034 021C  
                           l3042 0261                             l3026 01E8                             l3018 01DE  
                           l3130 0E9D                             l3122 0E84                             l3114 0E6E  
                           l3106 0E4F                             l2332 0A85                             l2316 0A68  
                           l2324 0A6F                             l2308 0A50                             l2084 0B57  
                           l2076 0B40                             l2260 0BE1                             l2252 0BB8  
                           l2244 0BA0                             l2236 0B84                             l3060 0305  
                           l3044 0267                             l3052 02CD                             l3036 0228  
                           l3028 01EA                             l3140 0EC3                             l3132 0EA8  
                           l3124 0E89                             l3116 0E73                             l3108 0E5A  
                           l2326 0A78                             l2318 0A6C                             l2086 0B5C  
                           l2270 0C14                             l2262 0BE5                             l2254 0BC6  
                           l2246 0BA4                             l2238 0B94                             l3070 0367  
                           l3062 0320                             l3054 02D3                             l3046 02B0  
                           l3038 0249                             l3142 0EC6                             l3126 0E8D  
                           l3134 0EB3                             l3118 0E78                             l1800 16EA  
                           l2328 0A7D                             l2336 0A87                             l2272 0C18  
                           l2264 0BEF                             l2256 0BCF                             l2248 0BAD  
                           l3080 0386                             l3072 036C                             l3064 032A  
                           l3056 02DF                             l3048 02BB                             l3152 0EDF  
                           l3144 0ECD                             l3136 0EBB                             l3128 0E92  
                           l1810 16F8                             l2290 0A2B                             l2274 0C19  
                           l2266 0BF9                             l2258 0BD6                             l3090 03AF  
                           l3082 0391                             l3074 036E                             l3066 0345  
                           l3058 02EA                             l3154 0EE5                             l3146 0ED4  
                           l3138 0EC1                             l3162 0EF1                             l2700 1705  
                           l1812 16FC                             l2292 0A30                             l2268 0C0F  
                           l1820 0F0B                             l3084 039C                             l3076 0372  
                           l3068 0360                             l3156 0EE7                             l3148 0EDA  
                           l3164 0EFF                             l3092 0E0E                             l2702 1706  
                           l1814 16FD                             l2710 0929                             l1910 0FB9  
                           l1822 0F0D                             l3086 03AA                             l3078 0381  
                           l3158 0EEA                             l3094 0E13                             l2704 172F  
                           l2800 0548                             l2720 095A                             l2712 092E  
                           l1904 0FA3                             l1832 0F17                             l1816 0F06  
                           l3088 03AD                             l3096 0E19                             l2642 1742  
                           l2650 17D1                             l2298 0A35                             l2810 05EF  
                           l2802 0565                             l2730 03B7                             l2722 0965  
                           l2714 0939                             l2706 0920                             l1914 0FBE  
                           l1906 0FB4                             l1850 0F48                             l1842 0F32  
                           l1834 0F28                             l1826 0F12                             l1818 0F07  
                           l3098 0E24                             l2644 174C                             l2660 1713  
                           l2652 17D9                             l2820 063B                             l2812 0617  
                           l2804 0590                             l2740 03CA                             l2732 03BC  
                           l2724 0970                             l2716 094A                             l2708 0926  
                           l1924 0FC8                             l1860 0F53                             l1852 0F4C  
                           l2646 174E                             l2670 08F1                             l2662 08CD  
                           l2654 17E9                             l2910 0A15                             l2830 0650  
                           l2822 063C                             l2814 0620                             l2806 059E  
                           l2750 03E6                             l2742 03CF                             l2734 03C0  
                           l2726 0973                             l2718 094F                             l1918 0FC3  
                           l1870 0F70                             l1854 0F4E                             l1862 0F64  
                           l1838 0F2D                             l1926 0FD9                             l2648 1754  
                           l2680 0913                             l2672 08F8                             l2664 08D5  
                           l2656 17EF                             l2912 0A24                             l2904 0A00  
                           l2840 0675                             l2832 0654                             l2824 0645  
                           l2816 062E                             l2808 05C9                             l2760 03F9  
                           l2752 03EA                             l2744 03D7                             l2736 03C4  
                           l1960 1796                             l2728 0974                             l1864 0F68  
                           l1848 0F37                             l2920 0C31                             l2674 08FB  
                           l2666 08DC                             l2658 170C                             l2906 0A09  
                           l1970 0A8A                             l2690 17C7                             l2682 17AB  
                           l2850 06B3                             l2842 0683                             l2834 0668  
                           l2818 0637                             l2826 064B                             l2770 0415  
                           l2762 0401                             l2754 03EE                             l2746 03D9  
                           l2738 03C5                             l1962 179D                             l1954 1783  
                           l1882 0F7F                             l1874 0F75                             l1866 0F6B  
                           l2922 0C39                             l2930 0C49                             l2914 0C25  
                           l2676 0902                             l2668 08EC                             l2908 0A0F  
                           l1980 0A9E                             l1972 0A8E                             l2692 17CC  
                           l2684 17AD                             l2860 06E5                             l2852 06BE  
                           l2844 0687                             l2828 064F                             l2780 0454  
                           l2764 0403                             l2756 03EF                             l2748 03E1  
                           l1964 17A3                             l1956 1785                             l1892 0F88  
                           l2940 0CAA                             l2932 0C54                             l2924 0C3E  
                           l2916 0C2B                             l2678 090E                             l1990 0AB4  
                           l1982 0AA2                             l1974 0A93                             l2686 17B4  
                           l2862 06E9                             l2854 06CD                             l2846 06A0  
                           l2838 0670                             l2790 04DB                             l2782 0470  
                           l2774 041E                             l2766 040B                             l2758 03F4  
                           l1958 1789                             l1894 0F99                             l1886 0F84  
                           l1878 0F7A                             l2942 0CE2                             l2934 0C5E  
                           l2926 0C42                             l2918 0C30                             l2950 0D22  
                           l2696 1701                             l2880 0895                             l2872 087F  
                           l1992 0AB8                             l1984 0AA4                             l1976 0A95  
                           l1968 0A89                             l2688 17B8                             l2864 06EA  
                           l2856 06D7                             l2848 06A6                             l2792 04E9  
                           l2784 049A                             l2776 042C                             l2768 0410  
                           l2944 0CE8                             l2936 0C64                             l2928 0C48  
                           l2960 0D3A                             l2952 0D27                             l2698 1704  
                           l2882 0896                             l2874 0889                             l2890 09D2  
                           l1994 0ABC                             l1986 0AAA                             l1978 0A99  
                           l2858 06D9                             l2866 06EF                             l2794 0506  
                           l2786 04B6                             l2778 0439                             l1898 0F9E  
                           l2938 0CA4                             l2970 0D9A                             l2954 0D2F  
                           l2962 0D3F                             l2946 0D1B                             l2876 088C  
                           l2892 09DB                             l2884 09CF                             l1996 0ACD  
                           l1988 0AAD                             l2868 06F3                             l2796 0514  
                           l2788 04D2                             l2980 003F                             l2972 0DA0  
                           l2964 0D4A                             l2956 0D33                             l2948 0D21  
                           l2878 088D                             l2894 09E1                             l1998 0AD3  
                           l2798 0531                             l2990 0071                             l2982 0047  
                           l2974 0DD8                             l2966 0D54                             l2958 0D39  
                           l2896 09E7                             l2992 00B2                             l2984 004C  
                           l2976 0DDE                             l2968 0D5A                             l2898 09FD  
                           l2994 00BC                             l2986 0051                             l2978 003A  
                           l2996 00D7                             l2988 005C                             l2998 00F2  
                           ?_isr 0070                             STR_1 0859                             STR_2 085F  
                           STR_3 07E0                             STR_4 0846                             STR_5 07D6  
                           STR_6 07AA                             STR_7 0822                             STR_8 07EA  
                           STR_9 07FE                             u3000 0415                             u3001 0414  
                           u2210 0B70                             u3011 0462                             u2211 0B6F  
                           u3012 0469                             u2300 0BEB                             u2220 0B74  
                           u3101 0582                             u3021 047E                             u3013 0470  
                           u2301 0BEA                             u2221 0B73                             u3102 0589  
                           u3022 0485                             u1510 1789                             u2310 0BEF  
                           u2230 0B94                             u3111 05AD                             u3103 0590  
                           u3031 04A8                             u3023 048C                             u1511 1788  
                           u2311 0BEE                             u2231 0B93                             u2400 0A5D  
                           u3200 064F                             u3120 05D5                             u3112 05B4  
                           u3032 04AF                             u2320 0C04                             u2401 0A5C  
                           u3201 064E                             u3113 05BB                             u3041 04C4  
                           u3033 04B6                             u2410 0A68                             u1610 0ACD  
                           u3210 0654                             u3042 04CB                             u2330 0C14  
                           u2250 0BB3                             u2411 0A67                             u1611 0ACC  
                           u3211 0653                             u3131 05E1                             u3043 04D2  
                           u2331 0C13                             u2251 0BB2                             u3300 09E7  
                           u2420 0A78                             u1700 09AD                             u3220 0668  
                           u3140 05FD                             u3132 05E8                             u1540 17A3  
                           u2340 0C18                             u3301 09E6                             u2421 0A77  
                           u1605 0ABD                             u1701 09AC                             u3221 0667  
                           u3133 05EF                             u3125 05D0                             u3061 04F8  
                           u1541 17A2                             u1525 1790                             u2341 0C17  
                           u2325 0BFF                             u2245 0BA5                             u3310 0A15  
                           u2430 0A7D                             u2350 0A30                             u1630 0AE1  
                           u1550 0A8E                             u3230 066F                             u3062 04FF  
                           u2270 0BD5                             u3311 0A14                             u2431 0A7C  
                           u2351 0A2F                             u1631 0AE0                             u1615 0AC9  
                           u1551 0A8D                             u3231 066E                             u3151 0609  
                           u3071 0523                             u3063 0506                             u3055 04D4  
                           u1535 1797                             u2271 0BD4                             u2440 0A85  
                           u2360 0A40                             u1640 0AE6                             u1560 0A99  
                           u1720 09C0                             u3240 0675                             u3152 0610  
                           u3072 052A                             u1800 0B46                             u3320 0C2B  
                           u3400 0D39                             u2441 0A84                             u2361 0A3F  
                           u1641 0AE5                             u1625 0AD5                             u1561 0A98  
                           u1721 09BF                             u1705 09A9                             u3241 0674  
                           u3153 0617                             u3145 05F8                             u3073 0531  
                           u1801 0B45                             u2265 0BC7                             u3321 0C2A  
                           u3401 0D38                             u2370 0A45                             u1570 0AAA  
                           u1730 09C5                             u1650 097B                             u3250 0687  
                           u2290 0BE5                             u3330 0C39                             u3410 0D5A  
                           u2371 0A44                             u1571 0AA9                             u1731 09C4  
                           u1715 09B4                             u1651 097A                             u3251 0686  
                           u3091 0557                             u2291 0BE4                             u3331 0C38  
                           u3411 0D59                             u2380 0A50                             u1660 0986  
                           u3260 0696                             u3180 063B                             u3092 055E  
                           u1820 0B57                             u1740 0AFB                             u3500 02B0  
                           u3340 0C48                             u3420 0DA0                             u2381 0A4F  
                           u1661 0985                             u3181 063A                             u3165 0619  
                           u3093 0565                             u3085 0533                             u1821 0B56  
                           u1741 0AFA                             u2285 0BDA                             u3501 02AF  
                           u3341 0C47                             u3421 0D9F                             u2390 0A57  
                           u1590 0ABC                             u1670 0991                             u3270 06B3  
                           u1830 0B5C                             u1750 0B12                             u3510 02D3  
                           u3350 0C64                             u3430 0DDE                             u2391 0A56  
                           u1591 0ABB                             u1671 0990                             u3271 06B2  
                           u3175 0630                             u1831 0B5B                             u1815 0B49  
                           u3511 02D2                             u3351 0C63                             u3431 0DDD  
                           u3280 06CD                             u1760 0B26                             u3520 0367  
                           u3440 0047                             u3360 0CAA                             u3600 0E84  
                           u1585 0AAE                             u3281 06CC                             u3265 0691  
                           u1761 0B25                             u3521 0366                             u3505 02AC  
                           u3441 0046                             u3361 0CA9                             u3601 0E83  
                           u1690 09A3                             u3290 06E9                             u1770 0B2D  
                           u3530 036C                             u3450 01E6                             u3370 0CE8  
                           u3610 0EBB                             u1691 09A2                             u3291 06E8  
                           u3275 06AF                             u3195 063E                             u1771 0B2C  
                           u1755 0B0D                             u3531 036B                             u3451 01E5  
                           u3371 0CE7                             u3611 0EBA                             u2900 17CC  
                           u3540 0380                             u3460 020A                             u3380 0D21  
                           u3620 0EC1                             u1685 0995                             u2901 17CB  
                           u3285 06C9                             u3541 037F                             u3461 0209  
                           u3381 0D20                             u3621 0EC0                             u1790 0B3F  
                           u2910 0926                             u3470 021C                             u3390 0D2F  
                           u3630 0EDA                             u3550 0E4F                             u1791 0B3E  
                           u2911 0925                             u3471 021B                             u3391 0D2E  
                           u3631 0ED9                             u3551 0E4E                             u2920 094A  
                           u3480 0249                             u3640 0EE5                             u3560 0E5A  
                           u1785 0B2F                             u2921 0949                             u3481 0248  
                           u3641 0EE4                             u3561 0E59                             u2850 1749  
                           u2930 03C4                             u3490 0267                             u3570 0E6E  
                           u2851 1745                             u3707 08E0                             u2931 03C3  
                           u3491 0266                             u3475 0218                             u3571 0E6D  
                           _PEIE 005E                             u2940 03CA                             u3580 0E73  
                           u3717 08EE                             u2941 03C9                             u3485 0245  
                           u3581 0E72                             u2870 17FF                             u2950 03CF  
                           u3590 0E7E                             u3727 0904                             u2871 17FE  
                           u2951 03CE                             u3591 0E7D                             u2864 174C  
                           u2880 17B8                             u2960 03EE                             u3737 0910  
                           u2881 17B7                             u2961 03ED                             u3657 0105  
                           u2970 03F4                             u3747 091C                             u2971 03F3  
                           u3667 03A4                             u2980 03F9                             u3757 1751  
                           u3677 0A1D                             u2981 03F8                             u2990 0410  
                           u3767 175B                             u3687 1715                             u2895 17BF  
                           u2991 040F                             u3697 08D1    read_digital_keypad@long_press 0062  
                           _main 0E0E                             btemp 007E                             start 000C  
                 clcd_write@byte 0075                   clcd_write@mode 0072          __end_of_power_on_screen 0A2A  
      ??_washing_program_display 0022                            ??_isr 0070                    ___fltol@sign1 0048  
                          ?_main 0070                  __end_of___awdiv 0AF0                            STR_10 0811  
                          STR_11 07F4                            STR_20 0721                            STR_12 07C1  
                          STR_21 0779                            STR_13 086F                            STR_30 081A  
                          STR_22 07B6                            STR_14 0874                            STR_23 07CC  
                          STR_31 0786                            STR_15 083F                            STR_40 086A  
                          STR_32 082A                            STR_24 0792                            STR_16 0865  
                          STR_25 0721                            STR_41 0711                            STR_33 0700  
                          STR_17 0878                            STR_34 086A                            STR_42 0750  
                          STR_18 0741                            STR_26 0731                            STR_35 0853  
                          STR_19 0808                            STR_43 079E                            STR_27 075F  
                          STR_36 084D                            STR_28 0838                            STR_44 076C  
                __end_of___awmod 09CF                            STR_45 0786                            STR_37 0853  
                          STR_29 0831                            STR_46 082A                            STR_38 084D  
                          STR_39 084D                            STR_47 0700                  __end_of___flmul 06FC  
                __end_of___fltol 0B68                  ___awdiv@divisor 0072                            i1l306 08C6  
                   ?_init_config 0070                  ___awdiv@counter 0076                            _PORTB 0006  
                          _PORTD 0008                            _TRISB 0086                            _TRISD 0088  
                   ?_init_timer2 0070            run_program@total_time 0058                            pclath 000A  
                          status 0003                            wtemp0 007E                  __initialization 000F  
                   __end_of_main 0F06                           ??_main 007A                   run_program@key 0050  
__end_of_washing_program_display 0D18                 ___awdiv@dividend 0074                           i1l2630 08B4  
                         i1l2622 0898                           i1l2632 08B7                           i1l2640 08C5  
                         i1l2624 089E                           i1l2634 08BC                           i1l2626 08AD  
                         i1l2636 08C1                           i1l2628 08AF                           i1l2638 08C3  
                         u280_20 089E                           u280_21 089D                           u281_20 08AD  
                         u281_21 08AC                           u282_20 08B4                           u282_21 08B3  
                         u283_20 08BC                           u283_21 08BB                           u284_20 08C1  
                         u284_21 08C0                           _TMR2IE 0461                           _TMR2IF 0061  
                         _TMR2ON 0092                           _TRISC1 0439                           _TRISC2 043A  
                         _TRISE1 0449                           _TRISE2 044A                 __end_of___xxtofl 0C22  
    __end_of_init_digital_keypad 16F0          _init_display_controller 08CD                           ___wmul 1783  
                      ??___awdiv 0076                 ?_power_on_screen 0070                        ??___awmod 0076  
                      ??___flmul 002E                        ??___fltol 0044      __end_of_water_level_display 0E0E  
               ___awdiv@quotient 0078                  ___awmod@divisor 0072                  ___awmod@counter 0076  
    read_digital_keypad@prev_key 0060                           saved_w 007E                     ___xxtofl@arg 0022  
                   ___xxtofl@exp 0021                     ___xxtofl@val 0072          __end_of__initialization 0033  
                     ___fltol@f1 0040                   __pcstackCOMMON 0070                     __pidataBANK0 06FC  
                   __pidataBANK1 1761                     ?_run_program 0070                       __pbssBANK0 0056  
                run_program@wait 0051                  run_program@time 0066                       _clcd_clear 170C  
      ??_init_display_controller 0076                       _clcd_print 17D1                       _clcd_putch 172C  
                     _clcd_write 1741                __end_of__Umul8_16 17D1                       __pmaintext 0E0E  
                        ?___wmul 0072                       __pintentry 0004      __end_of_read_digital_keypad 0A89  
                      ?___xxtofl 0072                       __stringtab 1000                          ___awdiv 0A89  
                        ___awmod 0976                          ___flmul 03B7                          ___fltol 0AF0  
                        __ptext1 0D18                          __ptext2 0C22                          __ptext3 0037  
                        __ptext4 0F06                          __ptext5 0920                          __ptext6 0B68  
                        __ptext7 1783                          __ptext8 0AF0                          __ptext9 03B7  
__end_of_init_display_controller 0920                __end_of_init_clcd 170C           read_digital_keypad@key 0061  
                     ??___xxtofl 0076                 ___awmod@dividend 0074                          main@key 0055  
                        clrloop0 16F1             end_of_initialization 0033                      ?_clcd_clear 0070  
              __end_of_set_timer 1000                   _operation_mode 0069                      ?_clcd_print 0076  
                    ?_clcd_putch 0020                      ?_clcd_write 0072         ?_washing_program_display 0070  
                     _reset_mode 0065                     __pstringtext 0700                       _rinse_time 005E  
     washing_program_display@key 0024                       _program_no 007B                    ___xxtofl@sign 0020  
                  clcd_print@str 0076                      ___flmul@grs 0035                   __end_of___wmul 17A8  
            start_initialization 000F                      __end_of_isr 08CD                         ??___wmul 0076  
                     init_fetch0 1719                        __Umul8_16 17A8                      __pdataBANK0 0068  
                    __pdataBANK1 00A0                    ??_init_config 0078                    ??_init_timer2 0072  
                      ___flmul@a 002A                        ___flmul@b 0026                      __pbssCOMMON 007A  
                      ___latbits 0002                    __pcstackBANK0 0020             power_on_screen@i_143 0026  
                       ?___awdiv 0072                         ?___awmod 0072                         ?___flmul 0026  
                       ?___fltol 0040                       ?__Umul8_16 0072                        __pstrings 1000  
                      _init_clcd 1701              __end_of_init_config 0898                ??_power_on_screen 0022  
            __end_of_init_timer2 1701         ?_init_display_controller 0070                interrupt_function 0004  
                 ___wmul@product 0076                     ??_clcd_clear 0076                        clear_ram0 16F0  
                   ??_clcd_print 0079                     ??_clcd_putch 007A                     ??_clcd_write 0073  
                      _set_timer 0F06                        _wash_time 005C                        _spin_time 005A  
                    __stringbase 1012                ___wmul@multiplier 0072               __end_of_clcd_clear 1719  
             __end_of_clcd_print 1800               __end_of_clcd_putch 1741               __end_of_clcd_write 1761  
                     ?_init_clcd 0070              _init_digital_keypad 16EA              _water_level_display 0D18  
                     ?_set_timer 0070                      ??__Umul8_16 0074              _water_level_options 00B8  
           ?_init_digital_keypad 0070               __end_of__stringtab 1012                      _init_config 087F  
           ?_water_level_display 0070                         ___xxtofl 0B68                      _init_timer2 16F8  
                  ??_run_program 004A                         __ptext10 17A8                         __ptext11 0976  
                       __ptext20 16EA                         __ptext12 0A89                         __ptext21 1701  
                       __ptext13 0A2A                         __ptext22 08CD                         __ptext14 09CF  
                       __ptext23 1741                         __ptext15 172C                         __ptext24 0898  
                       __ptext16 17D1                         __ptext17 170C                         __ptext18 087F  
                       __ptext19 16F8          read_digital_keypad@mode 0073          read_digital_keypad@once 0068  
          ??_init_digital_keypad 0072                _door_status_check 0920                         main@wait 0053  
             ?_door_status_check 0070            ??_water_level_display 0022                         isr@count 0056  
            ??_door_status_check 0079                         init_ram0 171D                      ??_init_clcd 0078  
                       intlevel1 0000              __end_of_run_program 03B7                        stringcode 100A  
                    ??_set_timer 0072        __end_of_door_status_check 0976              _read_digital_keypad 0A2A  
              _water_level_index 007A          _washing_program_display 0C22           __Umul8_16@multiplicand 0072  
                _power_on_screen 09CF                     _washing_prog 00A0                         stringtab 1000  
           ?_read_digital_keypad 0070                 power_on_screen@i 0025             __Umul8_16@multiplier 0024  
              __Umul8_16@product 0020  
